(dp0
(I76
I21
tp1
(lp2
S'76_21.png'
p3
aVreach cell with diamond below tree
p4
a(I4
I1
tp5
a(I4
I1
tp6
aS'correct'
p7
as(I65
I24
tp8
(lp9
S'65_24.png'
p10
aVreach one cell left of star
p11
a(I3
I8
tp12
a(I3
I8
tp13
ag7
as(I77
I24
tp14
(lp15
S'77_24.png'
p16
aVreach the house that is one row above the spade and two to the right .
p17
a(I1
I8
tp18
a(I1
I8
tp19
ag7
as(I66
I31
tp20
(lp21
S'66_31.png'
p22
aVreach rock cell under yellow star
p23
a(cnumpy.core.multiarray
scalar
p24
(cnumpy
dtype
p25
(S'i8'
p26
I0
I1
tp27
Rp28
(I3
S'<'
p29
NNNI-1
I-1
I0
tp30
bS'\x06\x00\x00\x00\x00\x00\x00\x00'
p31
tp32
Rp33
g24
(g28
S'\x06\x00\x00\x00\x00\x00\x00\x00'
p34
tp35
Rp36
tp37
a(I6
I6
tp38
ag7
as(I78
I39
tp39
(lp40
S'78_39.png'
p41
aVlower right corner , one below the rock
p42
a(I9
I9
tp43
a(I9
I9
tp44
ag7
as(I67
I30
tp45
(lp46
S'67_30.png'
p47
aVreach rock to left of top house
p48
a(I1
I2
tp49
a(I1
I2
tp50
ag7
as(I82
I36
tp51
(lp52
S'82_36.png'
p53
aVreach the space that is one space below the spade and three spaces below the rock
p54
a(I9
I0
tp55
a(I9
I0
tp56
ag7
as(I79
I38
tp57
(lp58
S'79_38.png'
p59
aVabove the star
p60
a(g24
(g28
S'\x05\x00\x00\x00\x00\x00\x00\x00'
p61
tp62
Rp63
g24
(g28
S'\x04\x00\x00\x00\x00\x00\x00\x00'
p64
tp65
Rp66
tp67
a(I5
I4
tp68
ag7
as(I68
I25
tp69
(lp70
S'68_25.png'
p71
aVreach goal one square above star .
p72
a(I7
I2
tp73
a(I7
I2
tp74
ag7
as(I83
I35
tp75
(lp76
S'83_35.png'
p77
aVone cell right of tree
p78
a(I1
I7
tp79
a(I1
I7
tp80
ag7
as(I69
I28
tp81
(lp82
S'69_28.png'
p83
aVreach teh cell between the two houses and on top of the heart
p84
a(I4
I2
tp85
a(I4
I2
tp86
ag7
as(I84
I36
tp87
(lp88
S'84_36.png'
p89
aVmove to one above and one right of star
p90
a(I5
I4
tp91
a(I6
I4
tp92
aS'wrong'
p93
as(I67
I36
tp94
(lp95
S'67_36.png'
p96
aVreach square above star
p97
a(I4
I7
tp98
a(I4
I7
tp99
ag7
as(I80
I12
tp100
(lp101
S'80_12.png'
p102
aVreach the cell between two houses
p103
a(I6
I4
tp104
a(I6
I4
tp105
ag7
as(I70
I19
tp106
(lp107
S'70_19.png'
p108
aVreach the second cell right to the circle
p109
a(I7
I9
tp110
a(I7
I9
tp111
ag7
as(I68
I39
tp112
(lp113
S'68_39.png'
p114
aVgo to the cell with a star
p115
a(I8
I2
tp116
a(I8
I2
tp117
ag7
as(I83
I9
tp118
(lp119
S'83_9.png'
p120
aVreach the cell one above the triangle and one to the right
p121
a(g24
(g28
S'\x08\x00\x00\x00\x00\x00\x00\x00'
p122
tp123
Rp124
g24
(g28
S'\x08\x00\x00\x00\x00\x00\x00\x00'
p125
tp126
Rp127
tp128
a(I8
I8
tp129
ag7
as(I81
I9
tp130
(lp131
S'81_9.png'
p132
aVreach house two below diamond
p133
a(g24
(g28
S'\x07\x00\x00\x00\x00\x00\x00\x00'
p134
tp135
Rp136
g24
(g28
S'\x08\x00\x00\x00\x00\x00\x00\x00'
p137
tp138
Rp139
tp140
a(I7
I8
tp141
ag7
as(I71
I26
tp142
(lp143
S'71_26.png'
p144
aVreach house one above star
p145
a(I6
I1
tp146
a(I6
I1
tp147
ag7
as(I69
I38
tp148
(lp149
S'69_38.png'
p150
aVreach cell under triangle
p151
a(I3
I9
tp152
a(I2
I9
tp153
ag93
as(I84
I2
tp154
(lp155
S'84_2.png'
p156
aVreach cell between tree and square
p157
a(g24
(g28
S'\x04\x00\x00\x00\x00\x00\x00\x00'
p158
tp159
Rp160
g24
(g28
S'\x04\x00\x00\x00\x00\x00\x00\x00'
p161
tp162
Rp163
tp164
a(I5
I4
tp165
ag93
as(I73
I35
tp166
(lp167
S'73_35.png'
p168
aVreach goal by going one square right and one square down from the diamond
p169
a(I7
I7
tp170
a(I7
I7
tp171
ag7
as(I81
I35
tp172
(lp173
S'81_35.png'
p174
aVreach cell above triangle
p175
a(I7
I1
tp176
a(I7
I1
tp177
ag7
as(I73
I5
tp178
(lp179
S'73_5.png'
p180
aVgo to the cell below the star
p181
a(I6
I8
tp182
a(I6
I8
tp183
ag7
as(I72
I36
tp184
(lp185
S'72_36.png'
p186
aVgo to the house below the circle .
p187
a(I7
I8
tp188
a(I7
I8
tp189
ag7
as(I74
I2
tp190
(lp191
S'74_2.png'
p192
aVsquare 2 rows below rock containg horse
p193
a(I2
I5
tp194
a(I2
I5
tp195
ag7
as(I79
I27
tp196
(lp197
S'79_27.png'
p198
aVreach cell with the horse
p199
a(I7
I1
tp200
a(I7
I1
tp201
ag7
as(I75
I11
tp202
(lp203
S'75_11.png'
p204
aVmove to the cell one above and one to left of the rock
p205
a(I4
I7
tp206
a(I4
I7
tp207
ag7
as(I78
I4
tp208
(lp209
S'78_4.png'
p210
aVreach cell with the tree above the star
p211
a(g24
(g28
S'\x02\x00\x00\x00\x00\x00\x00\x00'
p212
tp213
Rp214
g24
(g28
S'\x06\x00\x00\x00\x00\x00\x00\x00'
p215
tp216
Rp217
tp218
a(I2
I6
tp219
ag7
as(I76
I12
tp220
(lp221
S'76_12.png'
p222
aVmove one to the left of the star and up one .
p223
a(I5
I0
tp224
a(I5
I0
tp225
ag7
as(I65
I17
tp226
(lp227
S'65_17.png'
p228
aVgo a space above the heart
p229
a(I1
I9
tp230
a(I1
I9
tp231
ag7
as(I68
I14
tp232
(lp233
S'68_14.png'
p234
aVreach the space one up and two to the left of the diamond
p235
a(I5
I2
tp236
a(I5
I2
tp237
ag7
as(I66
I22
tp238
(lp239
S'66_22.png'
p240
aVmove cell one space down from the house
p241
a(I1
I5
tp242
a(I1
I5
tp243
ag7
as(I67
I7
tp244
(lp245
S'67_7.png'
p246
aVreach cell to the right of the triangle
p247
a(g24
(g28
S'\x02\x00\x00\x00\x00\x00\x00\x00'
p248
tp249
Rp250
g24
(g28
S'\x03\x00\x00\x00\x00\x00\x00\x00'
p251
tp252
Rp253
tp254
a(I2
I3
tp255
ag7
as(I65
I11
tp256
(lp257
S'65_11.png'
p258
aVgo one space to the left of the tree
p259
a(I9
I8
tp260
a(I9
I8
tp261
ag7
as(I68
I0
tp262
(lp263
S'68_0.png'
p264
aVreach cell 1 below diamond and to the left of triangle
p265
a(I7
I3
tp266
a(I7
I3
tp267
ag7
as(I84
I35
tp268
(lp269
S'84_35.png'
p270
aVmove to cell 2 left of house
p271
a(I9
I7
tp272
a(I9
I7
tp273
ag7
as(I80
I3
tp274
(lp275
S'80_3.png'
p276
aVbelow the spade
p277
a(I5
I3
tp278
a(I5
I3
tp279
ag7
as(I70
I10
tp280
(lp281
S'70_10.png'
p282
aVreach the cell left and above the heart
p283
a(g24
(g28
S'\x05\x00\x00\x00\x00\x00\x00\x00'
p284
tp285
Rp286
g24
(g28
S'\x02\x00\x00\x00\x00\x00\x00\x00'
p287
tp288
Rp289
tp290
a(I5
I2
tp291
ag7
as(I81
I2
tp292
(lp293
S'81_2.png'
p294
aVreach cell one to right of rock and one to upper right of triangle
p295
a(I7
I2
tp296
a(I7
I2
tp297
ag7
as(I84
I9
tp298
(lp299
S'84_9.png'
p300
aVreach cell up above circle
p301
as(I73
I36
tp302
(lp303
S'73_36.png'
p304
aVreach goal by going down 2 squares under the star
p305
a(I7
I8
tp306
a(I7
I8
tp307
ag7
as(I80
I25
tp308
(lp309
S'80_25.png'
p310
aVreach square with house that is to the right of the circle
p311
a(I2
I3
tp312
a(I2
I3
tp313
ag7
as(I74
I35
tp314
(lp315
S'74_35.png'
p316
aVreach cell to the right of the lowest purple house
p317
a(I7
I5
tp318
a(I7
I5
tp319
ag7
as(I81
I36
tp320
(lp321
S'81_36.png'
p322
aVreach cell one down and one left from heart
p323
a(I7
I8
tp324
a(I7
I8
tp325
ag7
as(I73
I14
tp326
(lp327
S'73_14.png'
p328
aVreach cell between circle and horse .
p329
a(I4
I7
tp330
a(I4
I7
tp331
ag7
as(I74
I13
tp332
(lp333
S'74_13.png'
p334
aVreach the spade .
p335
a(I5
I5
tp336
a(I5
I5
tp337
ag7
as(I72
I21
tp338
(lp339
S'72_21.png'
p340
aVto the right of blue circle
p341
a(g24
(g28
S'\x06\x00\x00\x00\x00\x00\x00\x00'
p342
tp343
Rp344
g24
(g28
S'\t\x00\x00\x00\x00\x00\x00\x00'
p345
tp346
Rp347
tp348
a(I6
I9
tp349
ag7
as(I75
I0
tp350
(lp351
S'75_0.png'
p352
aVreach heart above horse .
p353
a(I6
I9
tp354
a(I6
I9
tp355
ag7
as(I73
I16
tp356
(lp357
S'73_16.png'
p358
aVreach cell right of heart .
p359
a(I6
I4
tp360
a(I6
I4
tp361
ag7
as(I78
I15
tp362
(lp363
S'78_15.png'
p364
aVreach diamond one left of a heart
p365
a(I1
I3
tp366
a(I1
I3
tp367
ag7
as(I76
I11
tp368
(lp369
S'76_11.png'
p370
aVreach one down from the spade and to the left .
p371
a(I7
I0
tp372
a(I7
I1
tp373
ag93
as(I74
I23
tp374
(lp375
S'74_23.png'
p376
aVreach square that is between the horse and circle
p377
a(I3
I5
tp378
a(I3
I5
tp379
ag7
as(I79
I14
tp380
(lp381
S'79_14.png'
p382
aVreach cell to purple house left of horse
p383
a(I7
I0
tp384
a(I7
I0
tp385
ag7
as(I66
I17
tp386
(lp387
S'66_17.png'
p388
aVreach cell one space above and to the left of the star
p389
a(I4
I5
tp390
a(I4
I5
tp391
ag7
as(I67
I12
tp392
(lp393
S'67_12.png'
p394
aVreach cell 3 blocks right of house and 4 blocks above tree .
p395
a(I1
I6
tp396
a(I1
I6
tp397
ag7
as(I65
I12
tp398
(lp399
S'65_12.png'
p400
aVgo two spaces above the tree
p401
a(I7
I9
tp402
a(I7
I9
tp403
ag7
as(I68
I15
tp404
(lp405
S'68_15.png'
p406
aVreach the space two above the star
p407
a(I6
I2
tp408
a(I6
I2
tp409
ag7
as(I66
I11
tp410
(lp411
S'66_11.png'
p412
aVreach spade to the left of the house
p413
a(I0
I4
tp414
a(I0
I4
tp415
ag7
as(I69
I14
tp416
(lp417
S'69_14.png'
p418
aVreach house one below the diamond
p419
a(I8
I0
tp420
a(I8
I0
tp421
ag7
as(I67
I18
tp422
(lp423
S'67_18.png'
p424
aVreach 3 blocks below spade .
p425
a(I5
I4
tp426
a(I5
I4
tp427
ag7
as(I82
I38
tp428
(lp429
S'82_38.png'
p430
aVreach the space that is a heart
p431
a(I8
I6
tp432
a(I8
I6
tp433
ag7
as(I65
I38
tp434
(lp435
S'65_38.png'
p436
aVreach the cell two above diamond
p437
a(I6
I8
tp438
a(I6
I8
tp439
ag7
as(I70
I13
tp440
(lp441
S'70_13.png'
p442
aVreach second cell right to the spade
p443
a(I8
I9
tp444
a(I8
I9
tp445
ag7
as(I68
I21
tp446
(lp447
S'68_21.png'
p448
aVreach goal between rock and tree .
p449
a(g24
(g28
S'\t\x00\x00\x00\x00\x00\x00\x00'
p450
tp451
Rp452
g24
(g28
S'\x02\x00\x00\x00\x00\x00\x00\x00'
p453
tp454
Rp455
tp456
a(I9
I2
tp457
ag7
as(I83
I23
tp458
(lp459
S'83_23.png'
p460
aVreach the space one down and one left of the circle .
p461
a(I2
I8
tp462
a(I2
I8
tp463
ag7
as(I66
I37
tp464
(lp465
S'66_37.png'
p466
aVreach tree cell between orange triangle and red heart
p467
a(I7
I9
tp468
a(I7
I9
tp469
ag7
as(I84
I16
tp470
(lp471
S'84_16.png'
p472
aVreach cell that is two cells below the diamond
p473
a(I7
I5
tp474
a(I7
I5
tp475
ag7
as(I82
I0
tp476
(lp477
S'82_0.png'
p478
aVreach heart
p479
a(I8
I6
tp480
a(I8
I6
tp481
ag7
as(I80
I16
tp482
(lp483
S'80_16.png'
p484
aVreach the circle
p485
a(I2
I2
tp486
a(I2
I2
tp487
ag7
as(I70
I39
tp488
(lp489
S'70_39.png'
p490
aVone box down and to the left of the tree
p491
a(I9
I5
tp492
a(I9
I5
tp493
ag7
as(I81
I29
tp494
(lp495
S'81_29.png'
p496
aVreach the cell to the left of the heart
p497
a(I6
I8
tp498
a(I6
I8
tp499
ag7
as(I71
I38
tp500
(lp501
S'71_38.png'
p502
aVone left of blue circle
p503
a(I8
I1
tp504
a(I8
I1
tp505
ag7
as(I75
I35
tp506
(lp507
S'75_35.png'
p508
aVreach cell two to the right of triangle
p509
a(I0
I5
tp510
a(I0
I5
tp511
ag7
as(I82
I26
tp512
(lp513
S'82_26.png'
p514
aVreach the cell that is two up from the star .
p515
a(I4
I6
tp516
a(I4
I6
tp517
ag7
as(I76
I36
tp518
(lp519
S'76_36.png'
p520
aVcell to the right of horse
p521
a(I5
I3
tp522
a(I5
I3
tp523
ag7
as(I72
I28
tp524
(lp525
S'72_28.png'
p526
aVone right of the star
p527
a(I6
I7
tp528
a(I6
I7
tp529
ag7
as(I78
I22
tp530
(lp531
S'78_22.png'
p532
aVreach cell 2 spaces above blue circle
p533
a(I5
I7
tp534
a(I5
I7
tp535
ag7
as(I76
I2
tp536
(lp537
S'76_2.png'
p538
aVreach the square right side of the horse
p539
a(I5
I3
tp540
a(I5
I1
tp541
ag93
as(I74
I30
tp542
(lp543
S'74_30.png'
p544
aVreach cell below tree
p545
a(I2
I7
tp546
a(I2
I7
tp547
ag7
as(I79
I23
tp548
(lp549
S'79_23.png'
p550
aVreach cell with the rock two spaces right of the spade
p551
a(I8
I5
tp552
a(I8
I6
tp553
ag93
as(I77
I3
tp554
(lp555
S'77_3.png'
p556
aVgo to the area located two spaces to the right of the spade
p557
a(I2
I8
tp558
a(I2
I8
tp559
ag7
as(I75
I31
tp560
(lp561
S'75_31.png'
p562
aVreach cell at bottom left of rock
p563
a(I6
I7
tp564
a(I6
I7
tp565
ag7
as(I70
I38
tp566
(lp567
S'70_38.png'
p568
aVone box next to the triangle
p569
a(I7
I5
tp570
a(I7
I5
tp571
ag7
as(I76
I24
tp572
(lp573
S'76_24.png'
p574
aVreach cell two right of the tree and one up one right of the rock
p575
a(I3
I3
tp576
a(I3
I3
tp577
ag7
as(I77
I29
tp578
(lp579
S'77_29.png'
p580
aVreach the horse that is below the circle .
p581
a(g24
(g28
S'\x05\x00\x00\x00\x00\x00\x00\x00'
p582
tp583
Rp584
g24
(g28
S'\x05\x00\x00\x00\x00\x00\x00\x00'
p585
tp586
Rp587
tp588
a(I5
I5
tp589
ag7
as(I66
I2
tp590
(lp591
S'66_2.png'
p592
aVreach the cell that is two spaces to the left of the star and one cell down
p593
a(I6
I4
tp594
a(I6
I4
tp595
ag7
as(I78
I34
tp596
(lp597
S'78_34.png'
p598
aVabove the spade , horse to the right
p599
a(I8
I9
tp600
a(I8
I7
tp601
ag93
as(I67
I27
tp602
(lp603
S'67_27.png'
p604
aVreach the rock nearest to the bottom
p605
a(I7
I6
tp606
a(I7
I6
tp607
ag7
as(I70
I4
tp608
(lp609
S'70_4.png'
p610
aVorange triangle to the left of blue circle and above tree .
p611
a(I7
I6
tp612
a(I7
I6
tp613
ag7
as(I82
I14
tp614
(lp615
S'82_14.png'
p616
aVfind the horse one belw and two to the left of the spade
p617
a(g24
(g28
S'\t\x00\x00\x00\x00\x00\x00\x00'
p618
tp619
Rp620
g24
(g28
S'\x00\x00\x00\x00\x00\x00\x00\x00'
p621
tp622
Rp623
tp624
a(I9
I0
tp625
ag7
as(I83
I28
tp626
(lp627
S'83_28.png'
p628
aVreach the house to the left of the diamond .
p629
a(I3
I5
tp630
a(I3
I5
tp631
ag7
as(I69
I17
tp632
(lp633
S'69_17.png'
p634
aVreach cell two to the right of the house and two below the heart
p635
a(I8
I2
tp636
a(I8
I2
tp637
ag7
as(I84
I31
tp638
(lp639
S'84_31.png'
p640
aVmove to one to left and one above circle
p641
a(I6
I7
tp642
a(I6
I7
tp643
ag7
as(I67
I33
tp644
(lp645
S'67_33.png'
p646
aVreach square below circle
p647
a(I7
I5
tp648
a(I7
I5
tp649
ag7
as(I80
I23
tp650
(lp651
S'80_23.png'
p652
aVreach tree to the left of diamond
p653
a(I9
I4
tp654
a(I9
I4
tp655
ag7
as(I70
I30
tp656
(lp657
S'70_30.png'
p658
aVup one and two to the right of the circle
p659
a(I6
I9
tp660
a(I6
I9
tp661
ag7
as(I83
I2
tp662
(lp663
S'83_2.png'
p664
aVreach the triangle
p665
a(I9
I7
tp666
a(I9
I7
tp667
ag7
as(I81
I22
tp668
(lp669
S'81_22.png'
p670
aVreach the cell three cells below the blue circle
p671
a(I7
I7
tp672
a(I7
I7
tp673
ag7
as(I71
I31
tp674
(lp675
S'71_31.png'
p676
aVreach triangle next to horse
p677
a(I3
I1
tp678
a(I3
I1
tp679
ag7
as(I84
I5
tp680
(lp681
S'84_5.png'
p682
aVreach cell below tree
p683
a(I5
I7
tp684
a(I6
I7
tp685
ag93
as(I82
I21
tp686
(lp687
S'82_21.png'
p688
aVreach the diamond that is between the rock and the heart
p689
a(I8
I5
tp690
a(I8
I5
tp691
ag7
as(I76
I35
tp692
(lp693
S'76_35.png'
p694
aVcell to the right of diamond
p695
a(I4
I2
tp696
a(I4
I0
tp697
ag93
as(I77
I34
tp698
(lp699
S'77_34.png'
p700
aVreach space one space above yellow star .
p701
a(I2
I6
tp702
a(I2
I6
tp703
ag7
as(I73
I2
tp704
(lp705
S'73_2.png'
p706
aVgo to cell one below the circle and one over to the left
p707
a(I5
I5
tp708
a(I5
I5
tp709
ag7
as(I78
I25
tp710
(lp711
S'78_25.png'
p712
aVreach cell to the left of blue circle
p713
a(I7
I6
tp714
a(I7
I6
tp715
ag7
as(I74
I25
tp716
(lp717
S'74_25.png'
p718
aVreach square that is between the rock and horse .
p719
a(I1
I5
tp720
a(I1
I5
tp721
ag7
as(I79
I28
tp722
(lp723
S'79_28.png'
p724
aVreach cell with the rock two spaces right of the spade
p725
a(I8
I5
tp726
a(I8
I5
tp727
ag7
as(I75
I20
tp728
(lp729
S'75_20.png'
p730
aVreach the cell in between the diamond and the heart
p731
a(I5
I8
tp732
a(I4
I9
tp733
ag93
as(I78
I3
tp734
(lp735
S'78_3.png'
p736
aVreach cell with the horse above the diamond
p737
a(I0
I3
tp738
a(I0
I3
tp739
ag7
as(I76
I23
tp740
(lp741
S'76_23.png'
p742
aVreach cell to the right of the rock one up and one right of the horse
p743
a(I4
I3
tp744
a(I4
I3
tp745
ag7
as(I65
I30
tp746
(lp747
S'65_30.png'
p748
aVreach the cell to the left of triangle
p749
a(I9
I7
tp750
a(I9
I7
tp751
ag7
as(I77
I22
tp752
(lp753
S'77_22.png'
p754
aVreach the cell that is one space directly above the diamond .
p755
a(I5
I6
tp756
a(I5
I6
tp757
ag7
as(I66
I29
tp758
(lp759
S'66_29.png'
p760
aVmove rock one space up and blue circle 5 spaces down
p761
a(I5
I6
tp762
a(I5
I6
tp763
ag7
as(I78
I37
tp764
(lp765
S'78_37.png'
p766
aVleft of the triangle
p767
a(I9
I6
tp768
a(I9
I6
tp769
ag7
as(I67
I0
tp770
(lp771
S'67_0.png'
p772
aVreach cell below triangle
p773
a(I3
I2
tp774
a(I3
I2
tp775
ag7
as(I79
I32
tp776
(lp777
S'79_32.png'
p778
aVright to the tree and below the spade
p779
a(I9
I3
tp780
a(I9
I3
tp781
ag7
as(I68
I27
tp782
(lp783
S'68_27.png'
p784
aVreach goal below house .
p785
a(I9
I1
tp786
a(I8
I6
tp787
ag93
as(I83
I37
tp788
(lp789
S'83_37.png'
p790
aVtwo cells below tree
p791
a(I3
I6
tp792
a(I3
I6
tp793
ag7
as(I69
I26
tp794
(lp795
S'69_26.png'
p796
aVreach teh cell of the rock below the heart
p797
a(I7
I1
tp798
a(I7
I1
tp799
ag7
as(I84
I38
tp800
(lp801
S'84_38.png'
p802
aVreach rock below star
p803
a(I7
I3
tp804
a(I7
I3
tp805
ag7
as(I67
I38
tp806
(lp807
S'67_38.png'
p808
aVreach square to right of spade
p809
a(I2
I5
tp810
a(I2
I5
tp811
ag7
as(I80
I14
tp812
(lp813
S'80_14.png'
p814
aVreach the circle
p815
a(I2
I2
tp816
a(I2
I2
tp817
ag7
as(I70
I17
tp818
(lp819
S'70_17.png'
p820
aVreach the second cell right to the spade
p821
a(I8
I9
tp822
a(I8
I9
tp823
ag7
as(I68
I33
tp824
(lp825
S'68_33.png'
p826
aVgo to the cell above the circle
p827
a(g24
(g28
S'\x06\x00\x00\x00\x00\x00\x00\x00'
p828
tp829
Rp830
g24
(g28
S'\x05\x00\x00\x00\x00\x00\x00\x00'
p831
tp832
Rp833
tp834
a(I6
I5
tp835
ag7
as(I81
I15
tp836
(lp837
S'81_15.png'
p838
aVbelow spade
p839
a(I4
I5
tp840
a(I4
I5
tp841
ag7
as(I71
I20
tp842
(lp843
S'71_20.png'
p844
aVreach tree one below and right of diamond and one below and left of heart
p845
a(I9
I7
tp846
a(I9
I7
tp847
ag7
as(I69
I36
tp848
(lp849
S'69_36.png'
p850
aVreach cell left of house and two under spade
p851
a(I5
I1
tp852
a(I5
I1
tp853
ag7
as(I84
I12
tp854
(lp855
S'84_12.png'
p856
aVreach the spade that is to the immediate left of the rock and above the tree
p857
a(I3
I6
tp858
a(I3
I6
tp859
ag7
as(I73
I33
tp860
(lp861
S'73_33.png'
p862
aVreach target one square below the heart and one to the left of it
p863
a(I7
I2
tp864
a(I7
I2
tp865
ag7
as(I74
I38
tp866
(lp867
S'74_38.png'
p868
aVreach the lower house
p869
a(I7
I4
tp870
a(I7
I4
tp871
ag7
as(I81
I33
tp872
(lp873
S'81_33.png'
p874
aVreach cell one right and down from triangle
p875
a(I9
I2
tp876
a(I9
I2
tp877
ag7
as(I73
I11
tp878
(lp879
S'73_11.png'
p880
aVreach cell with blue circle .
p881
a(I4
I6
tp882
a(I4
I6
tp883
ag7
as(I74
I0
tp884
(lp885
S'74_0.png'
p886
aV2 squares right of star and 1 square left of rock
p887
a(I0
I6
tp888
a(I0
I6
tp889
ag7
as(I75
I13
tp890
(lp891
S'75_13.png'
p892
aVmove to the cell one to the right of the star and two below .
p893
a(I7
I3
tp894
a(I7
I3
tp895
ag7
as(I78
I10
tp896
(lp897
S'78_10.png'
p898
aVreach cell two below a star
p899
a(I5
I6
tp900
a(I5
I6
tp901
ag7
as(I76
I14
tp902
(lp903
S'76_14.png'
p904
aVmove to the purple house .
p905
a(g24
(g28
S'\x01\x00\x00\x00\x00\x00\x00\x00'
p906
tp907
Rp908
g24
(g28
S'\x07\x00\x00\x00\x00\x00\x00\x00'
p909
tp910
Rp911
tp912
a(I1
I7
tp913
ag7
as(I65
I23
tp914
(lp915
S'65_23.png'
p916
aVreach one cell above heart and one cell to the left
p917
a(I1
I8
tp918
a(I1
I8
tp919
ag7
as(I79
I3
tp920
(lp921
S'79_3.png'
p922
aVreach the cell with the triangle
p923
a(I8
I2
tp924
a(I8
I2
tp925
ag7
as(I66
I20
tp926
(lp927
S'66_20.png'
p928
aVmove cell one space up from the diamond
p929
a(I0
I9
tp930
a(I1
I9
tp931
ag93
as(I67
I9
tp932
(lp933
S'67_9.png'
p934
aVreach cell right then down from the star
p935
a(g24
(g28
S'\x06\x00\x00\x00\x00\x00\x00\x00'
p936
tp937
Rp938
g24
(g28
S'\x08\x00\x00\x00\x00\x00\x00\x00'
p939
tp940
Rp941
tp942
a(I6
I8
tp943
ag7
as(I68
I2
tp944
(lp945
S'68_2.png'
p946
aVreach cell between heart and circle
p947
a(I7
I4
tp948
a(I7
I4
tp949
ag7
as(I66
I14
tp950
(lp951
S'66_14.png'
p952
aVreach rock below the house
p953
a(g24
(g28
S'\x01\x00\x00\x00\x00\x00\x00\x00'
p954
tp955
Rp956
g24
(g28
S'\x05\x00\x00\x00\x00\x00\x00\x00'
p957
tp958
Rp959
tp960
a(I1
I5
tp961
ag7
as(I72
I34
tp962
(lp963
S'72_34.png'
p964
aVgo two spaces above the star .
p965
a(I4
I6
tp966
a(I4
I6
tp967
ag7
as(I65
I35
tp968
(lp969
S'65_35.png'
p970
aVreach the cell one to the south , then one to the left of spade
p971
a(I5
I8
tp972
a(I9
I7
tp973
ag93
as(I80
I5
tp974
(lp975
S'80_5.png'
p976
aVgo to the lowest house
p977
a(I7
I4
tp978
a(I7
I4
tp979
ag7
as(I70
I8
tp980
(lp981
S'70_8.png'
p982
aVspace above heart and to the right of rock .
p983
a(I5
I3
tp984
a(I5
I3
tp985
ag7
as(I81
I0
tp986
(lp987
S'81_0.png'
p988
aVreach heart
p989
a(I6
I9
tp990
a(I6
I9
tp991
ag7
as(I84
I11
tp992
(lp993
S'84_11.png'
p994
aVreach cell that is to the lower right of the heart
p995
a(I9
I9
tp996
a(I9
I9
tp997
ag7
as(I82
I7
tp998
(lp999
S'82_7.png'
p1000
aVreach cell above rock closest to triangle
p1001
a(I4
I5
tp1002
a(I4
I5
tp1003
ag7
as(I80
I27
tp1004
(lp1005
S'80_27.png'
p1006
aVreach the square with the spade
p1007
a(I4
I3
tp1008
a(I4
I3
tp1009
ag7
as(I70
I34
tp1010
(lp1011
S'70_34.png'
p1012
aVone down and one to the left of the heart
p1013
a(I7
I2
tp1014
a(I7
I2
tp1015
ag7
as(I74
I33
tp1016
(lp1017
S'74_33.png'
p1018
aVreach rock
p1019
a(g24
(g28
S'\x07\x00\x00\x00\x00\x00\x00\x00'
p1020
tp1021
Rp1022
g24
(g28
S'\x03\x00\x00\x00\x00\x00\x00\x00'
p1023
tp1024
Rp1025
tp1026
a(I7
I3
tp1027
ag7
as(I81
I26
tp1028
(lp1029
S'81_26.png'
p1030
aVreach the green diamond one cell up and one cell to the left of the heart
p1031
a(I5
I8
tp1032
a(I5
I8
tp1033
ag7
as(I73
I12
tp1034
(lp1035
S'73_12.png'
p1036
aVreach cell diagonally right from triangle .
p1037
a(I8
I4
tp1038
a(I8
I4
tp1039
ag7
as(I72
I33
tp1040
(lp1041
S'72_33.png'
p1042
aVgo to the diamond .
p1043
a(I7
I3
tp1044
a(I7
I3
tp1045
ag7
as(I74
I11
tp1046
(lp1047
S'74_11.png'
p1048
aVreach the cell two space above circle .
p1049
a(I2
I5
tp1050
a(I2
I5
tp1051
ag7
as(I72
I23
tp1052
(lp1053
S'72_23.png'
p1054
aVbetween triangle and horse
p1055
a(I6
I8
tp1056
a(I6
I8
tp1057
ag7
as(I75
I2
tp1058
(lp1059
S'75_2.png'
p1060
aVreach square two down from circle .
p1061
a(I4
I4
tp1062
a(I4
I4
tp1063
ag7
as(I78
I13
tp1064
(lp1065
S'78_13.png'
p1066
aVreach cell between circle and triangle , two left of a horse
p1067
a(I8
I6
tp1068
a(I8
I6
tp1069
ag7
as(I76
I5
tp1070
(lp1071
S'76_5.png'
p1072
aVreach the stone
p1073
a(g24
(g28
S'\x04\x00\x00\x00\x00\x00\x00\x00'
p1074
tp1075
Rp1076
g24
(g28
S'\x02\x00\x00\x00\x00\x00\x00\x00'
p1077
tp1078
Rp1079
tp1080
a(I4
I2
tp1081
ag7
as(I74
I21
tp1082
(lp1083
S'74_21.png'
p1084
aVreach square that below house and two to the right of the triangle .
p1085
a(I6
I6
tp1086
a(I6
I6
tp1087
ag7
as(I79
I8
tp1088
(lp1089
S'79_8.png'
p1090
aVreach the cell with the horse
p1091
a(g24
(g28
S'\x07\x00\x00\x00\x00\x00\x00\x00'
p1092
tp1093
Rp1094
g24
(g28
S'\x01\x00\x00\x00\x00\x00\x00\x00'
p1095
tp1096
Rp1097
tp1098
a(I7
I1
tp1099
ag7
as(I77
I8
tp1100
(lp1101
S'77_8.png'
p1102
aVreach the area above the heart and one space to the left of the rock
p1103
a(I2
I0
tp1104
a(I2
I0
tp1105
ag7
as(I75
I24
tp1106
(lp1107
S'75_24.png'
p1108
aVreach the cell below the heart and above the tree
p1109
a(I7
I9
tp1110
a(I7
I9
tp1111
ag7
as(I79
I1
tp1112
(lp1113
S'79_1.png'
p1114
aVreach the cell with the heart
p1115
a(I9
I0
tp1116
a(I9
I0
tp1117
ag7
as(I67
I14
tp1118
(lp1119
S'67_14.png'
p1120
aVreach goal 2 blocks right of diamond .
p1121
a(I0
I6
tp1122
a(I0
I6
tp1123
ag7
as(I68
I9
tp1124
(lp1125
S'68_9.png'
p1126
aVreach cell 1 below star
p1127
a(I9
I2
tp1128
a(I9
I2
tp1129
ag7
as(I66
I9
tp1130
(lp1131
S'66_9.png'
p1132
aVreach the cell that is two cells down from the diamond and one space to the left
p1133
a(I2
I3
tp1134
a(I3
I8
tp1135
ag93
as(I69
I12
tp1136
(lp1137
S'69_12.png'
p1138
aVreach house one above the heart
p1139
a(g24
(g28
S'\x05\x00\x00\x00\x00\x00\x00\x00'
p1140
tp1141
Rp1142
g24
(g28
S'\x02\x00\x00\x00\x00\x00\x00\x00'
p1143
tp1144
Rp1145
tp1146
a(I5
I2
tp1147
ag7
as(I67
I20
tp1148
(lp1149
S'67_20.png'
p1150
aVreach cell to the left of diamond
p1151
a(I0
I3
tp1152
a(I0
I3
tp1153
ag7
as(I65
I36
tp1154
(lp1155
S'65_36.png'
p1156
aVreach the cell one above heart
p1157
a(g24
(g28
S'\x01\x00\x00\x00\x00\x00\x00\x00'
p1158
tp1159
Rp1160
g24
(g28
S'\t\x00\x00\x00\x00\x00\x00\x00'
p1161
tp1162
Rp1163
tp1164
a(I1
I9
tp1165
ag7
as(I70
I3
tp1166
(lp1167
S'70_3.png'
p1168
aVrock space to the right of green diamond .
p1169
a(I8
I8
tp1170
a(I9
I8
tp1171
ag93
as(I68
I23
tp1172
(lp1173
S'68_23.png'
p1174
aVreach goal one square right of diamond and one square above circle .
p1175
a(I6
I5
tp1176
a(I6
I5
tp1177
ag7
as(I83
I25
tp1178
(lp1179
S'83_25.png'
p1180
aVreach the space three above the second horse .
p1181
a(I5
I8
tp1182
a(I5
I8
tp1183
ag7
as(I66
I35
tp1184
(lp1185
S'66_35.png'
p1186
aVreach cell 3 left from tree
p1187
a(I7
I6
tp1188
a(I7
I6
tp1189
ag7
as(I69
I22
tp1190
(lp1191
S'69_22.png'
p1192
aVreach cell above the heart to the left of the house
p1193
a(I5
I1
tp1194
a(I5
I1
tp1195
ag7
as(I84
I18
tp1196
(lp1197
S'84_18.png'
p1198
aVreach the cell left of the tree and two cells above the triangle
p1199
a(I5
I2
tp1200
a(I5
I2
tp1201
ag7
as(I80
I18
tp1202
(lp1203
S'80_18.png'
p1204
aVreach the cell above the heart
p1205
a(I3
I2
tp1206
a(I3
I2
tp1207
ag7
as(I70
I37
tp1208
(lp1209
S'70_37.png'
p1210
aVthe yellow start
p1211
a(I4
I4
tp1212
a(I4
I4
tp1213
ag7
as(I81
I19
tp1214
(lp1215
S'81_19.png'
p1216
aVspace with rock above triangle
p1217
a(g24
(g28
S'\x07\x00\x00\x00\x00\x00\x00\x00'
p1218
tp1219
Rp1220
g24
(g28
S'\x01\x00\x00\x00\x00\x00\x00\x00'
p1221
tp1222
Rp1223
tp1224
a(I8
I1
tp1225
ag93
as(I71
I32
tp1226
(lp1227
S'71_32.png'
p1228
aVreach rock one above heart and one right
p1229
a(g24
(g28
S'\x07\x00\x00\x00\x00\x00\x00\x00'
p1230
tp1231
Rp1232
g24
(g28
S'\t\x00\x00\x00\x00\x00\x00\x00'
p1233
tp1234
Rp1235
tp1236
a(I7
I9
tp1237
ag7
as(I75
I37
tp1238
(lp1239
S'75_37.png'
p1240
aVreach cell to the right of circle
p1241
a(I2
I5
tp1242
a(I2
I5
tp1243
ag7
as(I82
I24
tp1244
(lp1245
S'82_24.png'
p1246
aVreach the tree that is directly above the circle
p1247
a(I6
I1
tp1248
a(I6
I1
tp1249
ag7
as(I76
I38
tp1250
(lp1251
S'76_38.png'
p1252
aVone cell left of circle
p1253
a(I1
I7
tp1254
a(I1
I7
tp1255
ag7
as(I72
I30
tp1256
(lp1257
S'72_30.png'
p1258
aVgo to the rock below the tree .
p1259
a(I7
I5
tp1260
a(I7
I5
tp1261
ag7
as(I77
I39
tp1262
(lp1263
S'77_39.png'
p1264
aVreach space one space to the right of spade .
p1265
a(I2
I7
tp1266
a(I2
I7
tp1267
ag7
as(I73
I31
tp1268
(lp1269
S'73_31.png'
p1270
aVreach target four squares to the left of the circle
p1271
a(I4
I2
tp1272
a(I4
I2
tp1273
ag7
as(I78
I20
tp1274
(lp1275
S'78_20.png'
p1276
aVreach horse above green diamond
p1277
a(I0
I3
tp1278
a(I0
I3
tp1279
ag7
as(I74
I28
tp1280
(lp1281
S'74_28.png'
p1282
aVreach square that has the rock to the left of the house .
p1283
a(I7
I3
tp1284
a(I7
I3
tp1285
ag7
as(I79
I17
tp1286
(lp1287
S'79_17.png'
p1288
aVreach cell to box under spade
p1289
a(I9
I3
tp1290
a(I9
I3
tp1291
ag7
as(I77
I1
tp1292
(lp1293
S'77_1.png'
p1294
aVreach the horse that is one space above the circle and one space left of the star
p1295
a(I3
I5
tp1296
a(I3
I5
tp1297
ag7
as(I75
I17
tp1298
(lp1299
S'75_17.png'
p1300
aVmove to the cell with the circle in it two below the triangle and one to the right .
p1301
a(I2
I4
tp1302
a(I2
I4
tp1303
ag7
as(I76
I26
tp1304
(lp1305
S'76_26.png'
p1306
aVreach cell two to the right of the spade
p1307
a(I6
I4
tp1308
a(I6
I4
tp1309
ag7
as(I65
I27
tp1310
(lp1311
S'65_27.png'
p1312
aVreach one cell left of diamond
p1313
a(I8
I7
tp1314
a(I8
I7
tp1315
ag7
as(I77
I27
tp1316
(lp1317
S'77_27.png'
p1318
aVreach the cell that is one above the diamond and then one cell to the right .
p1319
a(I5
I7
tp1320
a(I5
I7
tp1321
ag7
as(I66
I0
tp1322
(lp1323
S'66_0.png'
p1324
aVreach cell with heart that is between the rock and the tree
p1325
a(I6
I9
tp1326
a(I6
I9
tp1327
ag7
as(I78
I32
tp1328
(lp1329
S'78_32.png'
p1330
aVabove diamond and one to the right from horse
p1331
a(g24
(g28
S'\x00\x00\x00\x00\x00\x00\x00\x00'
p1332
tp1333
Rp1334
g24
(g28
S'\x03\x00\x00\x00\x00\x00\x00\x00'
p1335
tp1336
Rp1337
tp1338
a(I8
I8
tp1339
ag93
as(I67
I29
tp1340
(lp1341
S'67_29.png'
p1342
aVreach the rock near the blue circle
p1343
a(I7
I6
tp1344
a(I7
I6
tp1345
ag7
as(I79
I37
tp1346
(lp1347
S'79_37.png'
p1348
aVin between horse and circle
p1349
a(I7
I2
tp1350
a(I7
I2
tp1351
ag7
as(I68
I30
tp1352
(lp1353
S'68_30.png'
p1354
aVreach cell two above star
p1355
a(I6
I2
tp1356
a(I6
I2
tp1357
ag7
as(I83
I30
tp1358
(lp1359
S'83_30.png'
p1360
aVreach the cell one to the right and one above the triangle .
p1361
a(I8
I8
tp1362
a(I8
I8
tp1363
ag7
as(I69
I31
tp1364
(lp1365
S'69_31.png'
p1366
aVreach cell 3 squares to right of house between diamond and circle
p1367
a(I8
I3
tp1368
a(I8
I3
tp1369
ag7
as(I84
I25
tp1370
(lp1371
S'84_25.png'
p1372
aVreach house one below and to the right of the heart .
p1373
ag996
a(I9
I9
tp1374
ag7
as(I67
I35
tp1375
(lp1376
S'67_35.png'
p1377
aVreach triangle above heart
p1378
a(I2
I2
tp1379
a(I2
I2
tp1380
ag7
as(I80
I9
tp1381
(lp1382
S'80_9.png'
p1383
aVtwo right of the diamond
p1384
a(I9
I7
tp1385
a(I9
I7
tp1386
ag7
as(I70
I28
tp1387
(lp1388
S'70_28.png'
p1389
aVmove to the cell one space left of the heart
p1390
a(I6
I2
tp1391
a(I6
I2
tp1392
ag7
as(I68
I36
tp1393
(lp1394
S'68_36.png'
p1395
aVreach the cell two above the heart
p1396
a(I5
I3
tp1397
a(I5
I3
tp1398
ag7
as(I83
I4
tp1399
(lp1400
S'83_4.png'
p1401
aVreach the cell to the right of the diamond
p1402
a(I3
I7
tp1403
a(I3
I7
tp1404
ag7
as(I81
I20
tp1405
(lp1406
S'81_20.png'
p1407
aVreach horse one cell up , and one cell to the right of spade
p1408
a(I2
I6
tp1409
a(I2
I6
tp1410
ag7
as(I71
I25
tp1411
(lp1412
S'71_25.png'
p1413
aVreach horse one above spade
p1414
a(g24
(g28
S'\x03\x00\x00\x00\x00\x00\x00\x00'
p1415
tp1416
Rp1417
g24
(g28
S'\x00\x00\x00\x00\x00\x00\x00\x00'
p1418
tp1419
Rp1420
tp1421
a(I3
I0
tp1422
ag7
as(I84
I7
tp1423
(lp1424
S'84_7.png'
p1425
aVreach cell left of circle
p1426
a(I7
I7
tp1427
a(I7
I6
tp1428
ag93
as(I82
I19
tp1429
(lp1430
S'82_19.png'
p1431
aVreach the triangle between the houser and the rock
p1432
a(I6
I5
tp1433
a(I6
I5
tp1434
ag7
as(I77
I32
tp1435
(lp1436
S'77_32.png'
p1437
aVreach space one space below purple house and one space left of brown horse .
p1438
a(I5
I4
tp1439
a(I5
I4
tp1440
ag7
as(I73
I0
tp1441
(lp1442
S'73_0.png'
p1443
aVgo to cell above the star
p1444
a(I4
I8
tp1445
a(I4
I8
tp1446
ag7
as(I78
I31
tp1447
(lp1448
S'78_31.png'
p1449
aVbetween circle and triangle with horse on the right
p1450
a(I8
I7
tp1451
a(I8
I7
tp1452
ag7
as(I74
I7
tp1453
(lp1454
S'74_7.png'
p1455
aVone square left of purple house and one square below green diamond
p1456
a(I7
I3
tp1457
a(I6
I3
tp1458
ag93
as(I79
I30
tp1459
(lp1460
S'79_30.png'
p1461
aVthe row which have nothing
p1462
a(I4
I6
tp1463
a(I7
I4
tp1464
ag93
as(I75
I22
tp1465
(lp1466
S'75_22.png'
p1467
aVreach the cell to the left of the heart
p1468
a(I6
I8
tp1469
a(I6
I8
tp1470
ag7
as(I78
I1
tp1471
(lp1472
S'78_1.png'
p1473
aVreach cell with the horse directly above the tree
p1474
a(I8
I8
tp1475
a(I8
I8
tp1476
ag7
as(I76
I17
tp1477
(lp1478
S'76_17.png'
p1479
aVreach one above the star .
p1480
a(I5
I1
tp1481
a(I5
I1
tp1482
ag7
as(I82
I33
tp1483
(lp1484
S'82_33.png'
p1485
aVreach the space to the left of the diamond
p1486
a(I8
I4
tp1487
a(I8
I4
tp1488
ag7
as(I65
I28
tp1489
(lp1490
S'65_28.png'
p1491
aVreach one cell left of star
p1492
a(I3
I8
tp1493
a(I3
I8
tp1494
ag7
as(I79
I4
tp1495
(lp1496
S'79_4.png'
p1497
aVreach the cell one left of the horse
p1498
a(I7
I0
tp1499
a(I7
I0
tp1500
ag7
as(I77
I20
tp1501
(lp1502
S'77_20.png'
p1503
aVreach the cell to the left of the spade .
p1504
a(I2
I5
tp1505
a(I2
I5
tp1506
ag7
as(I66
I27
tp1507
(lp1508
S'66_27.png'
p1509
aVmove cell one space up from the rock and three spaces down from the diamond
p1510
a(I4
I9
tp1511
a(I4
I9
tp1512
ag7
as(I67
I2
tp1513
(lp1514
S'67_2.png'
p1515
aVreach cell one up and two to the right of the star .
p1516
a(I4
I9
tp1517
a(I4
I9
tp1518
ag7
as(I79
I34
tp1519
(lp1520
S'79_34.png'
p1521
aVhome left to the horse
p1522
a(I7
I0
tp1523
a(I7
I0
tp1524
ag7
as(I68
I5
tp1525
(lp1526
S'68_5.png'
p1527
aVreach cell 1 below star
p1528
a(I9
I2
tp1529
a(I9
I2
tp1530
ag7
as(I83
I39
tp1531
(lp1532
S'83_39.png'
p1533
aVone cell to the right and one below of tree
p1534
a(I2
I7
tp1535
a(I2
I7
tp1536
ag7
as(I69
I24
tp1537
(lp1538
S'69_24.png'
p1539
aVreach cell to the left of the heart
p1540
a(I6
I1
tp1541
a(I6
I1
tp1542
ag7
as(I84
I32
tp1543
(lp1544
S'84_32.png'
p1545
aVreach rock next to spade
p1546
a(g24
(g28
S'\x03\x00\x00\x00\x00\x00\x00\x00'
p1547
tp1548
Rp1549
g24
(g28
S'\x07\x00\x00\x00\x00\x00\x00\x00'
p1550
tp1551
Rp1552
tp1553
a(I3
I7
tp1554
ag7
as(I80
I0
tp1555
(lp1556
S'80_0.png'
p1557
aVleft of the diamond
p1558
a(I9
I6
tp1559
a(I9
I4
tp1560
ag93
as(I70
I23
tp1561
(lp1562
S'70_23.png'
p1563
aVmove to the tree that is left of the diamond
p1564
a(I8
I6
tp1565
a(I8
I6
tp1566
ag7
as(I68
I35
tp1567
(lp1568
S'68_35.png'
p1569
aVreach the cell one to the right and one above the circle
p1570
a(I6
I6
tp1571
a(I6
I6
tp1572
ag7
as(I81
I13
tp1573
(lp1574
S'81_13.png'
p1575
aVright of triangle one above rock
p1576
a(I6
I2
tp1577
a(I6
I2
tp1578
ag7
as(I71
I22
tp1579
(lp1580
S'71_22.png'
p1581
aVreach spade between horse and house
p1582
a(I4
I0
tp1583
a(I4
I0
tp1584
ag7
as(I69
I34
tp1585
(lp1586
S'69_34.png'
p1587
aVreach rock to right of circle
p1588
a(I9
I1
tp1589
a(I9
I1
tp1590
ag7
as(I84
I14
tp1591
(lp1592
S'84_14.png'
p1593
aVreach the tree that is directly above the star
p1594
a(I5
I3
tp1595
a(I6
I3
tp1596
ag93
as(I73
I39
tp1597
(lp1598
S'73_39.png'
p1599
aVreach goal by going up one square from the triangle
p1600
a(I8
I3
tp1601
a(I8
I3
tp1602
ag7
as(I74
I36
tp1603
(lp1604
S'74_36.png'
p1605
aVreach cell two below the tree
p1606
a(I3
I7
tp1607
a(I3
I7
tp1608
ag7
as(I81
I39
tp1609
(lp1610
S'81_39.png'
p1611
aVreach cell one right and two up from triangle
p1612
ag1577
a(I6
I2
tp1613
ag7
as(I73
I9
tp1614
(lp1615
S'73_9.png'
p1616
aVgo 3 cells to the left of the circle
p1617
a(I4
I3
tp1618
a(I4
I3
tp1619
ag7
as(I74
I14
tp1620
(lp1621
S'74_14.png'
p1622
aVthree cells below the spade .
p1623
a(I8
I5
tp1624
a(I8
I5
tp1625
ag7
as(I75
I15
tp1626
(lp1627
S'75_15.png'
p1628
aVmove to the cell 3 above the star .
p1629
a(I2
I2
tp1630
a(I2
I2
tp1631
ag7
as(I73
I19
tp1632
(lp1633
S'73_19.png'
p1634
aVreach cell below house .
p1635
a(I6
I5
tp1636
a(I6
I5
tp1637
ag7
as(I78
I8
tp1638
(lp1639
S'78_8.png'
p1640
aVreach cell to the left of a tree and diagonally between the heart and star
p1641
a(I2
I5
tp1642
a(I2
I5
tp1643
ag7
as(I76
I8
tp1644
(lp1645
S'76_8.png'
p1646
aVreach the diamond
p1647
a(I4
I1
tp1648
a(I4
I1
tp1649
ag7
as(I65
I21
tp1650
(lp1651
S'65_21.png'
p1652
aVreach one cell left of star
p1653
ag12
a(I3
I8
tp1654
ag7
as(I79
I13
tp1655
(lp1656
S'79_13.png'
p1657
aVreach cell to square to right and above rock
p1658
a(I7
I5
tp1659
a(I7
I5
tp1660
ag7
as(I82
I9
tp1661
(lp1662
S'82_9.png'
p1663
aVreach cell 2 left of house
p1664
a(I7
I3
tp1665
a(I7
I3
tp1666
ag7
as(I66
I18
tp1667
(lp1668
S'66_18.png'
p1669
aVreach cell between rock and diamond
p1670
a(I1
I8
tp1671
a(I1
I8
tp1672
ag7
as(I81
I23
tp1673
(lp1674
S'81_23.png'
p1675
aVreach the cell one space to the left of the diamond
p1676
a(I5
I7
tp1677
a(I5
I7
tp1678
ag7
as(I67
I11
tp1679
(lp1680
S'67_11.png'
p1681
aVreach cell two blocks above star .
p1682
a(I3
I7
tp1683
a(I3
I7
tp1684
ag7
as(I65
I15
tp1685
(lp1686
S'65_15.png'
p1687
aVgo to the space between the tree and circle
p1688
a(I9
I8
tp1689
a(I9
I8
tp1690
ag7
as(I68
I12
tp1691
(lp1692
S'68_12.png'
p1693
aVreach the space three spaces up and one to the right of the star
p1694
a(I5
I1
tp1695
a(I5
I3
tp1696
ag93
as(I66
I12
tp1697
(lp1698
S'66_12.png'
p1699
aVreach cell below spade
p1700
a(I1
I4
tp1701
a(I1
I4
tp1702
ag7
as(I67
I17
tp1703
(lp1704
S'67_17.png'
p1705
aVreach goal 3 blocks above tree .
p1706
a(I2
I6
tp1707
a(I2
I6
tp1708
ag7
as(I65
I33
tp1709
(lp1710
S'65_33.png'
p1711
aVreach the cell one to the left of star
p1712
a(g24
(g28
S'\x03\x00\x00\x00\x00\x00\x00\x00'
p1713
tp1714
Rp1715
g24
(g28
S'\x08\x00\x00\x00\x00\x00\x00\x00'
p1716
tp1717
Rp1718
tp1719
a(I3
I8
tp1720
ag7
as(I80
I7
tp1721
(lp1722
S'80_7.png'
p1723
aVright of the second highest tree
p1724
a(I3
I5
tp1725
a(I3
I5
tp1726
ag7
as(I70
I14
tp1727
(lp1728
S'70_14.png'
p1729
aVreach the cell bottom to the spade
p1730
a(I9
I7
tp1731
a(I9
I7
tp1732
ag7
as(I66
I38
tp1733
(lp1734
S'66_38.png'
p1735
aVreach cell 2 down from spade
p1736
a(I2
I4
tp1737
a(I2
I4
tp1738
ag7
as(I81
I6
tp1739
(lp1740
S'81_6.png'
p1741
aVreach rock between circle and horse
p1742
a(g24
(g28
S'\x04\x00\x00\x00\x00\x00\x00\x00'
p1743
tp1744
Rp1745
g24
(g28
S'\x08\x00\x00\x00\x00\x00\x00\x00'
p1746
tp1747
Rp1748
tp1749
a(I4
I8
tp1750
ag7
as(I84
I21
tp1751
(lp1752
S'84_21.png'
p1753
aVreach cell below circle and one above and to the left of house .
p1754
a(I8
I8
tp1755
a(I8
I8
tp1756
ag7
as(I82
I5
tp1757
(lp1758
S'82_5.png'
p1759
aVreach cell left of tree and right of house
p1760
a(I7
I6
tp1761
a(I7
I6
tp1762
ag7
as(I80
I29
tp1763
(lp1764
S'80_29.png'
p1765
aVreach the square directly below the spade
p1766
a(I5
I3
tp1767
a(I5
I3
tp1768
ag7
as(I70
I32
tp1769
(lp1770
S'70_32.png'
p1771
aVthe cell with the house next to the tree
p1772
a(I8
I5
tp1773
a(I8
I5
tp1774
ag7
as(I81
I24
tp1775
(lp1776
S'81_24.png'
p1777
aVreach the cell three cells to the left of the diamond
p1778
a(I5
I5
tp1779
a(I5
I5
tp1780
ag7
as(I71
I37
tp1781
(lp1782
S'71_37.png'
p1783
aVone left of purple house below other purple house
p1784
a(I6
I0
tp1785
a(I6
I0
tp1786
ag7
as(I82
I31
tp1787
(lp1788
S'82_31.png'
p1789
aVreach the space two spaces above the heart
p1790
a(I6
I6
tp1791
a(I6
I6
tp1792
ag7
as(I74
I9
tp1793
(lp1794
S'74_9.png'
p1795
aVone square above green club
p1796
a(I4
I5
tp1797
a(I4
I5
tp1798
ag7
as(I72
I25
tp1799
(lp1800
S'72_25.png'
p1801
aVtwo below the horse
p1802
a(I8
I9
tp1803
a(I8
I9
tp1804
ag7
as(I75
I4
tp1805
(lp1806
S'75_4.png'
p1807
aVreach horse left of tree .
p1808
a(I1
I2
tp1809
a(I1
I2
tp1810
ag7
as(I78
I19
tp1811
(lp1812
S'78_19.png'
p1813
aVreach circle one to the right , and one below tree
p1814
a(I7
I7
tp1815
a(I7
I7
tp1816
ag7
as(I76
I7
tp1817
(lp1818
S'76_7.png'
p1819
aVreach the square the didamond
p1820
a(I4
I0
tp1821
a(I4
I1
tp1822
ag93
as(I74
I19
tp1823
(lp1824
S'74_19.png'
p1825
aVreach to circle .
p1826
a(I4
I5
tp1827
a(I4
I5
tp1828
ag7
as(I79
I10
tp1829
(lp1830
S'79_10.png'
p1831
aVreach cell to purple house between heart and tree
p1832
a(I9
I1
tp1833
a(I9
I1
tp1834
ag7
as(I77
I6
tp1835
(lp1836
S'77_6.png'
p1837
aVgo to the house to the left of the circle
p1838
a(I4
I4
tp1839
a(I4
I4
tp1840
ag7
as(I75
I26
tp1841
(lp1842
S'75_26.png'
p1843
aVreach the cell below the orange triangle
p1844
a(g24
(g28
S'\x01\x00\x00\x00\x00\x00\x00\x00'
p1845
tp1846
Rp1847
g24
(g28
S'\x03\x00\x00\x00\x00\x00\x00\x00'
p1848
tp1849
Rp1850
tp1851
a(I1
I3
tp1852
ag7
as(I76
I29
tp1853
(lp1854
S'76_29.png'
p1855
aVreach cell to the left of the diamond
p1856
a(I4
I0
tp1857
a(I4
I0
tp1858
ag7
as(I82
I35
tp1859
(lp1860
S'82_35.png'
p1861
aVreach the space above the star
p1862
a(I5
I6
tp1863
a(I5
I6
tp1864
ag7
as(I68
I11
tp1865
(lp1866
S'68_11.png'
p1867
aVreach the tree below the spade
p1868
a(I9
I3
tp1869
a(I9
I3
tp1870
ag7
as(I66
I7
tp1871
(lp1872
S'66_7.png'
p1873
aVreach the cell that is two spaces to the left of the diamond
p1874
a(g24
(g28
S'\x01\x00\x00\x00\x00\x00\x00\x00'
p1875
tp1876
Rp1877
g24
(g28
S'\x07\x00\x00\x00\x00\x00\x00\x00'
p1878
tp1879
Rp1880
tp1881
a(I1
I7
tp1882
ag7
as(I69
I10
tp1883
(lp1884
S'69_10.png'
p1885
aVreach house to the right of the spade
p1886
a(g24
(g28
S'\x03\x00\x00\x00\x00\x00\x00\x00'
p1887
tp1888
Rp1889
g24
(g28
S'\x02\x00\x00\x00\x00\x00\x00\x00'
p1890
tp1891
Rp1892
tp1893
a(I3
I2
tp1894
ag7
as(I67
I22
tp1895
(lp1896
S'67_22.png'
p1897
aVreach cell 6 to the right of the top horse
p1898
a(I3
I9
tp1899
a(I4
I9
tp1900
ag93
as(I70
I1
tp1901
(lp1902
S'70_1.png'
p1903
aVblank space to the right of purple house and below tree .
p1904
a(I9
I6
tp1905
a(I9
I6
tp1906
ag7
as(I68
I17
tp1907
(lp1908
S'68_17.png'
p1909
aVreach the tree below the spade
p1910
a(I9
I3
tp1911
a(I9
I3
tp1912
ag7
as(I83
I27
tp1913
(lp1914
S'83_27.png'
p1915
aVreach the space 2 under the second house .
p1916
a(I5
I5
tp1917
a(I5
I5
tp1918
ag7
as(I66
I33
tp1919
(lp1920
S'66_33.png'
p1921
aVreach cell left of spade , one down
p1922
a(I1
I3
tp1923
a(I1
I3
tp1924
ag7
as(I69
I20
tp1925
(lp1926
S'69_20.png'
p1927
aVreach cell to the right of the lowest rock
p1928
a(I9
I2
tp1929
a(I9
I2
tp1930
ag7
as(I84
I28
tp1931
(lp1932
S'84_28.png'
p1933
aVreach cell to the left and one above triangle .
p1934
a(I6
I1
tp1935
a(I6
I1
tp1936
ag7
as(I80
I20
tp1937
(lp1938
S'80_20.png'
p1939
aVreach tree to the right of the diamond
p1940
a(I3
I4
tp1941
a(I3
I5
tp1942
ag93
as(I70
I27
tp1943
(lp1944
S'70_27.png'
p1945
aVmove to the circle
p1946
a(I7
I7
tp1947
a(I7
I7
tp1948
ag7
as(I83
I1
tp1949
(lp1950
S'83_1.png'
p1951
aVreach the cell one below diamond and at bottom of house
p1952
a(I4
I5
tp1953
a(I4
I5
tp1954
ag7
as(I81
I17
tp1955
(lp1956
S'81_17.png'
p1957
aVspace above spade
p1958
a(I2
I5
tp1959
a(I2
I5
tp1960
ag7
as(I71
I34
tp1961
(lp1962
S'71_34.png'
p1963
aVreach purple house directly below spade
p1964
a(I5
I0
tp1965
a(I5
I0
tp1966
ag7
as(I75
I39
tp1967
(lp1968
S'75_39.png'
p1969
aVchoose the cell to the top right of the star
p1970
a(I4
I3
tp1971
a(I4
I3
tp1972
ag7
as(I82
I22
tp1973
(lp1974
S'82_22.png'
p1975
aVreach the cell that is right two from the star and up two from the triangle
p1976
a(I4
I8
tp1977
a(I4
I8
tp1978
ag7
as(I72
I39
tp1979
(lp1980
S'72_39.png'
p1981
aVgo to the star .
p1982
a(I6
I6
tp1983
a(I6
I6
tp1984
ag7
as(I76
I32
tp1985
(lp1986
S'76_32.png'
p1987
aVone cell to the right of rock and below right of spade
p1988
a(I7
I3
tp1989
a(I7
I4
tp1990
ag93
as(I77
I37
tp1991
(lp1992
S'77_37.png'
p1993
aVreach space that is one space below house but one space left to horse .
p1994
a(I5
I4
tp1995
a(I5
I4
tp1996
ag7
as(I78
I26
tp1997
(lp1998
S'78_26.png'
p1999
aVreach cell 3 cells to the right of red heart
p2000
a(I1
I8
tp2001
a(I1
I7
tp2002
ag93
as(I72
I35
tp2003
(lp2004
S'72_35.png'
p2005
aVgo to the space below the star .
p2006
a(I7
I6
tp2007
a(I7
I6
tp2008
ag7
as(I74
I26
tp2009
(lp2010
S'74_26.png'
p2011
aVreach square that is between the star and heart .
p2012
a(g24
(g28
S'\x00\x00\x00\x00\x00\x00\x00\x00'
p2013
tp2014
Rp2015
g24
(g28
S'\x05\x00\x00\x00\x00\x00\x00\x00'
p2016
tp2017
Rp2018
tp2019
a(I0
I5
tp2020
ag7
as(I79
I19
tp2021
(lp2022
S'79_19.png'
p2023
aVreach cell to rock to right of house
p2024
a(I8
I5
tp2025
a(I8
I5
tp2026
ag7
as(I75
I19
tp2027
(lp2028
S'75_19.png'
p2029
aVmove to the cell above the rock .
p2030
a(I4
I8
tp2031
a(I4
I8
tp2032
ag7
as(I76
I20
tp2033
(lp2034
S'76_20.png'
p2035
aVreach cell below house
p2036
a(I2
I7
tp2037
a(I2
I7
tp2038
ag7
as(I65
I25
tp2039
(lp2040
S'65_25.png'
p2041
aVreach one cell left of heart
p2042
a(I2
I8
tp2043
a(I2
I8
tp2044
ag7
as(I82
I11
tp2045
(lp2046
S'82_11.png'
p2047
aVreach the cell below the tree and right of the heart
p2048
a(I8
I7
tp2049
a(I8
I7
tp2050
ag7
as(I66
I30
tp2051
(lp2052
S'66_30.png'
p2053
aVreach cell 5 left from tree and 7 down from spade
p2054
a(I7
I4
tp2055
a(I7
I4
tp2056
ag7
as(I78
I38
tp2057
(lp2058
S'78_38.png'
p2059
aVone above the star
p2060
a(I2
I6
tp2061
a(I2
I6
tp2062
ag7
as(I67
I31
tp2063
(lp2064
S'67_31.png'
p2065
aVreach rock to left of top house
p2066
a(I1
I2
tp2067
a(I1
I2
tp2068
ag7
as(I79
I39
tp2069
(lp2070
S'79_39.png'
p2071
aVabove the tree
p2072
a(I8
I2
tp2073
a(I8
I2
tp2074
ag7
as(I68
I24
tp2075
(lp2076
S'68_24.png'
p2077
aVreach goal below house and one square right of horse .
p2078
a(I8
I6
tp2079
a(I8
I6
tp2080
ag7
as(I83
I32
tp2081
(lp2082
S'83_32.png'
p2083
aVone cell below the tree
p2084
a(I2
I6
tp2085
a(I2
I6
tp2086
ag7
as(I69
I29
tp2087
(lp2088
S'69_29.png'
p2089
aVreach the cell above the diamond
p2090
a(I6
I0
tp2091
a(I6
I0
tp2092
ag7
as(I84
I27
tp2093
(lp2094
S'84_27.png'
p2095
aVreach cell to the left of circle and one above .
p2096
a(I6
I7
tp2097
a(I6
I7
tp2098
ag7
as(I67
I37
tp2099
(lp2100
S'67_37.png'
p2101
aVreach rock two below tree
p2102
a(I7
I6
tp2103
a(I7
I6
tp2104
ag7
as(I80
I11
tp2105
(lp2106
S'80_11.png'
p2107
aVreach cell to the bottom of spade right on the house
p2108
a(I5
I4
tp2109
a(I5
I4
tp2110
ag7
as(I70
I18
tp2111
(lp2112
S'70_18.png'
p2113
aVreach the cell with the tree bottom the the triangle
p2114
a(g24
(g28
S'\x08\x00\x00\x00\x00\x00\x00\x00'
p2115
tp2116
Rp2117
g24
(g28
S'\x06\x00\x00\x00\x00\x00\x00\x00'
p2118
tp2119
Rp2120
tp2121
a(I8
I6
tp2122
ag7
as(I68
I38
tp2123
(lp2124
S'68_38.png'
p2125
aVreach the cell in the heart
p2126
a(I7
I3
tp2127
a(I7
I3
tp2128
ag7
as(I83
I6
tp2129
(lp2130
S'83_6.png'
p2131
aVreach the cell two above the heart
p2132
a(I1
I3
tp2133
a(I1
I3
tp2134
ag7
as(I81
I10
tp2135
(lp2136
S'81_10.png'
p2137
aVright of the horse above the rock
p2138
a(I2
I7
tp2139
a(I2
I7
tp2140
ag7
as(I71
I27
tp2141
(lp2142
S'71_27.png'
p2143
aVreach space 5 below spade
p2144
a(I9
I0
tp2145
a(I9
I0
tp2146
ag7
as(I69
I39
tp2147
(lp2148
S'69_39.png'
p2149
aVreach cell to right of house between two rocks
p2150
a(I8
I1
tp2151
a(I8
I1
tp2152
ag7
as(I84
I1
tp2153
(lp2154
S'84_1.png'
p2155
aVreach cell up above tree and to the right
p2156
as(I82
I17
tp2157
(lp2158
S'82_17.png'
p2159
aVfind the cell three to the left of the heart
p2160
a(I8
I3
tp2161
a(I8
I3
tp2162
ag7
as(I73
I6
tp2163
(lp2164
S'73_6.png'
p2165
aVgo 3 cells to the right of the house
p2166
a(I5
I8
tp2167
a(I5
I8
tp2168
ag7
as(I78
I29
tp2169
(lp2170
S'78_29.png'
p2171
aVreach cell to the left of blue circle
p2172
a(I7
I6
tp2173
a(I7
I6
tp2174
ag7
as(I74
I5
tp2175
(lp2176
S'74_5.png'
p2177
aVone square left of rock containing purple house
p2178
a(I7
I4
tp2179
a(I7
I4
tp2180
ag7
as(I79
I24
tp2181
(lp2182
S'79_24.png'
p2183
aVreach the blank cell left of the diamond
p2184
a(I8
I0
tp2185
a(I8
I0
tp2186
ag7
as(I75
I8
tp2187
(lp2188
S'75_8.png'
p2189
aVreach square two above and one left of star .
p2190
a(I3
I1
tp2191
a(I3
I1
tp2192
ag7
as(I78
I7
tp2193
(lp2194
S'78_7.png'
p2195
aVreach cell to the right of the circle
p2196
a(I7
I8
tp2197
a(I7
I8
tp2198
ag7
as(I76
I19
tp2199
(lp2200
S'76_19.png'
p2201
aVmove to the rock under the spade .
p2202
a(I7
I2
tp2203
a(I7
I2
tp2204
ag7
as(I65
I18
tp2205
(lp2206
S'65_18.png'
p2207
aVgo to the space between the two rocks
p2208
a(I8
I8
tp2209
a(I8
I8
tp2210
ag7
as(I79
I6
tp2211
(lp2212
S'79_6.png'
p2213
aVreach the cell one to the right and below the star
p2214
a(I7
I5
tp2215
a(I8
I5
tp2216
ag93
as(I66
I25
tp2217
(lp2218
S'66_25.png'
p2219
aVmove cell one space down from the star
p2220
a(I6
I6
tp2221
a(I6
I6
tp2222
ag7
as(I67
I4
tp2223
(lp2224
S'67_4.png'
p2225
aVreach cell one up then one left from the spade
p2226
a(I1
I3
tp2227
a(I1
I3
tp2228
ag7
as(I82
I37
tp2229
(lp2230
S'82_37.png'
p2231
aVreach the space that is between the rock and the heart
p2232
a(I8
I5
tp2233
a(I8
I5
tp2234
ag7
as(I68
I7
tp2235
(lp2236
S'68_7.png'
p2237
aVreach cell 1 left of diamond
p2238
a(I6
I3
tp2239
a(I6
I3
tp2240
ag7
as(I84
I34
tp2241
(lp2242
S'84_34.png'
p2243
aVmove to cell 3 left of star
p2244
a(I6
I0
tp2245
a(I6
I0
tp2246
ag7
as(I80
I2
tp2247
(lp2248
S'80_2.png'
p2249
aVgo to the rock
p2250
a(g24
(g28
S'\x08\x00\x00\x00\x00\x00\x00\x00'
p2251
tp2252
Rp2253
g24
(g28
S'\x06\x00\x00\x00\x00\x00\x00\x00'
p2254
tp2255
Rp2256
tp2257
a(I8
I6
tp2258
ag7
as(I70
I21
tp2259
(lp2260
S'70_21.png'
p2261
aVmove to the house that is directly left of the tree
p2262
a(I8
I5
tp2263
a(I8
I5
tp2264
ag7
as(I81
I3
tp2265
(lp2266
S'81_3.png'
p2267
aVreach rock between circle and horse
p2268
a(I4
I8
tp2269
a(I4
I8
tp2270
ag7
as(I76
I0
tp2271
(lp2272
S'76_0.png'
p2273
aVreach the square in the heart
p2274
a(I0
I8
tp2275
a(I0
I7
tp2276
ag93
as(I69
I32
tp2277
(lp2278
S'69_32.png'
p2279
aVreach house above star
p2280
a(I0
I1
tp2281
a(I0
I1
tp2282
ag7
as(I84
I8
tp2283
(lp2284
S'84_8.png'
p2285
aVreach cell left of diamond
p2286
a(I6
I2
tp2287
a(I2
I2
tp2288
ag93
as(I73
I37
tp2289
(lp2290
S'73_37.png'
p2291
aVreach goal by going up two squares from the diamond
p2292
a(I4
I6
tp2293
a(I4
I6
tp2294
ag7
as(I80
I24
tp2295
(lp2296
S'80_24.png'
p2297
aVreach square to the left of the tree that is to the left of the diamond
p2298
a(I9
I3
tp2299
a(I9
I3
tp2300
ag7
as(I74
I34
tp2301
(lp2302
S'74_34.png'
p2303
aVreach cell four to the left of the spade
p2304
a(I5
I1
tp2305
a(I5
I1
tp2306
ag7
as(I81
I37
tp2307
(lp2308
S'81_37.png'
p2309
aVreach cell one right and one up from diamond
p2310
a(g24
(g28
S'\x04\x00\x00\x00\x00\x00\x00\x00'
p2311
tp2312
Rp2313
g24
(g28
S'\t\x00\x00\x00\x00\x00\x00\x00'
p2314
tp2315
Rp2316
tp2317
a(I4
I9
tp2318
ag7
as(I73
I15
tp2319
(lp2320
S'73_15.png'
p2321
aVreach cell diagonally bottom right of diamond .
p2322
a(I7
I7
tp2323
a(I7
I7
tp2324
ag7
as(I72
I37
tp2325
(lp2326
S'72_37.png'
p2327
aVgo to the tree .
p2328
a(I6
I5
tp2329
a(I6
I5
tp2330
ag7
as(I74
I12
tp2331
(lp2332
S'74_12.png'
p2333
aVthe cell next to the triangle on the right .
p2334
a(I6
I5
tp2335
a(I6
I5
tp2336
ag7
as(I72
I20
tp2337
(lp2338
S'72_20.png'
p2339
aVhouse between rock and tree
p2340
a(I6
I4
tp2341
a(I6
I4
tp2342
ag7
as(I75
I1
tp2343
(lp2344
S'75_1.png'
p2345
aVreach horse between heart and tree .
p2346
a(I7
I9
tp2347
a(I7
I9
tp2348
ag7
as(I73
I17
tp2349
(lp2350
S'73_17.png'
p2351
aVreach cell above triangle .
p2352
a(I8
I3
tp2353
a(I8
I3
tp2354
ag7
as(I78
I14
tp2355
(lp2356
S'78_14.png'
p2357
aVreach tree between triangle and spade
p2358
a(I9
I8
tp2359
a(I9
I8
tp2360
ag7
as(I76
I10
tp2361
(lp2362
S'76_10.png'
p2363
aVmove to the left of the diamond
p2364
a(I4
I0
tp2365
a(I4
I0
tp2366
ag7
as(I74
I22
tp2367
(lp2368
S'74_22.png'
p2369
aVreach square with the house that is below the horse .
p2370
a(g24
(g28
S'\x05\x00\x00\x00\x00\x00\x00\x00'
p2371
tp2372
Rp2373
g24
(g28
S'\x06\x00\x00\x00\x00\x00\x00\x00'
p2374
tp2375
Rp2376
tp2377
a(I5
I6
tp2378
ag7
as(I79
I15
tp2379
(lp2380
S'79_15.png'
p2381
aVreach cell to purple house between heart and tree
p2382
a(I9
I1
tp2383
a(I9
I1
tp2384
ag7
as(I66
I16
tp2385
(lp2386
S'66_16.png'
p2387
aVreach circle
p2388
a(I0
I6
tp2389
a(I0
I6
tp2390
ag7
as(I67
I13
tp2391
(lp2392
S'67_13.png'
p2393
aVreach cell 1 block below horse and 2 blocks below house .
p2394
a(I4
I3
tp2395
a(I4
I3
tp2396
ag7
as(I65
I13
tp2397
(lp2398
S'65_13.png'
p2399
aVgo one space above the circle
p2400
a(I8
I7
tp2401
a(I8
I7
tp2402
ag7
as(I82
I13
tp2403
(lp2404
S'82_13.png'
p2405
aVfind the cell between the tree and spade
p2406
a(I7
I1
tp2407
a(I7
I1
tp2408
ag7
as(I66
I10
tp2409
(lp2410
S'66_10.png'
p2411
aVreach house above diamond
p2412
a(g24
(g28
S'\x00\x00\x00\x00\x00\x00\x00\x00'
p2413
tp2414
Rp2415
g24
(g28
S'\t\x00\x00\x00\x00\x00\x00\x00'
p2416
tp2417
Rp2418
tp2419
a(I0
I9
tp2420
ag7
as(I69
I15
tp2421
(lp2422
S'69_15.png'
p2423
aVreach horse one above the triangle
p2424
a(I1
I9
tp2425
a(I1
I9
tp2426
ag7
as(I67
I19
tp2427
(lp2428
S'67_19.png'
p2429
aVreach goal 1 block above tree .
p2430
a(I4
I6
tp2431
a(I4
I6
tp2432
ag7
as(I65
I39
tp2433
(lp2434
S'65_39.png'
p2435
aVreach the cell one to the right of triangle
p2436
a(I9
I9
tp2437
a(I9
I9
tp2438
ag7
as(I70
I12
tp2439
(lp2440
S'70_12.png'
p2441
aVreach cell below and left to the tree
p2442
a(I9
I5
tp2443
a(I9
I5
tp2444
ag7
as(I68
I20
tp2445
(lp2446
S'68_20.png'
p2447
aVreach goal two squares below circle .
p2448
a(I9
I5
tp2449
a(I9
I5
tp2450
ag7
as(I83
I20
tp2451
(lp2452
S'83_20.png'
p2453
aVreach the space one down and two right of the diamond .
p2454
a(I4
I8
tp2455
a(I4
I8
tp2456
ag7
as(I66
I36
tp2457
(lp2458
S'66_36.png'
p2459
aVreach cell 1 left from spade
p2460
as(I81
I4
tp2461
(lp2462
S'81_4.png'
p2463
aVreach circle
p2464
a(I4
I7
tp2465
a(I4
I7
tp2466
ag7
as(I84
I23
tp2467
(lp2468
S'84_23.png'
p2469
aVreach cell to the left of horse and above the heart .
p2470
a(I7
I8
tp2471
a(I7
I8
tp2472
ag7
as(I82
I3
tp2473
(lp2474
S'82_3.png'
p2475
aVreach cell left of house
p2476
a(I7
I4
tp2477
a(I7
I4
tp2478
ag7
as(I68
I26
tp2479
(lp2480
S'68_26.png'
p2481
aVreach goal between tree and horse .
p2482
a(I6
I4
tp2483
a(I6
I4
tp2484
ag7
as(I81
I30
tp2485
(lp2486
S'81_30.png'
p2487
aVreach cell to the left of circle
p2488
a(I4
I6
tp2489
a(I4
I6
tp2490
ag7
as(I71
I39
tp2491
(lp2492
S'71_39.png'
p2493
aVone right of the heart
p2494
a(I8
I9
tp2495
a(I8
I9
tp2496
ag7
as(I75
I32
tp2497
(lp2498
S'75_32.png'
p2499
aVreach cell to the left of triangle
p2500
a(I0
I2
tp2501
a(I0
I2
tp2502
ag7
as(I82
I29
tp2503
(lp2504
S'82_29.png'
p2505
aVreach the cell that is below the heart .
p2506
a(I9
I6
tp2507
a(I9
I6
tp2508
ag7
as(I72
I27
tp2509
(lp2510
S'72_27.png'
p2511
aVone above the tree
p2512
a(I5
I5
tp2513
a(I5
I5
tp2514
ag7
as(I75
I6
tp2515
(lp2516
S'75_6.png'
p2517
aVreach square below tree and left of circle .
p2518
a(I2
I3
tp2519
a(I2
I3
tp2520
ag7
as(I78
I17
tp2521
(lp2522
S'78_17.png'
p2523
aVreach star three above tree
p2524
a(I3
I6
tp2525
a(I3
I6
tp2526
ag7
as(I76
I1
tp2527
(lp2528
S'76_1.png'
p2529
aVreach the square in the left side of the horse
p2530
a(I5
I0
tp2531
a(I5
I1
tp2532
ag93
as(I74
I17
tp2533
(lp2534
S'74_17.png'
p2535
aVone cell below spade next to triangle .
p2536
a(I6
I5
tp2537
a(I6
I5
tp2538
ag7
as(I79
I20
tp2539
(lp2540
S'79_20.png'
p2541
aVreach cell with the spade
p2542
a(I8
I3
tp2543
a(I8
I4
tp2544
ag93
as(I77
I4
tp2545
(lp2546
S'77_4.png'
p2547
aVreach the horse to the left of the star
p2548
a(I3
I5
tp2549
a(I3
I5
tp2550
ag7
as(I75
I28
tp2551
(lp2552
S'75_28.png'
p2553
aVreach the cell below the blue circle and to the right of the horse
p2554
a(I6
I4
tp2555
a(I3
I4
tp2556
ag93
as(I76
I31
tp2557
(lp2558
S'76_31.png'
p2559
aVone cell left of heart above house
p2560
a(I0
I7
tp2561
a(I0
I7
tp2562
ag7
as(I77
I30
tp2563
(lp2564
S'77_30.png'
p2565
aVreach space two spaces above the red heart .
p2566
a(I1
I0
tp2567
a(I1
I0
tp2568
ag7
as(I66
I5
tp2569
(lp2570
S'66_5.png'
p2571
aVreach the cell that is left of the triangle and one down
p2572
a(g24
(g28
S'\t\x00\x00\x00\x00\x00\x00\x00'
p2573
tp2574
Rp2575
g24
(g28
S'\x08\x00\x00\x00\x00\x00\x00\x00'
p2576
tp2577
Rp2578
tp2579
a(I9
I8
tp2580
ag7
as(I67
I24
tp2581
(lp2582
S'67_24.png'
p2583
aVreach cell to the right of the horse near the star
p2584
a(I6
I9
tp2585
a(I6
I9
tp2586
ag7
as(I82
I39
tp2587
(lp2588
S'82_39.png'
p2589
aVreach the space to the left of the spade
p2590
a(I8
I0
tp2591
a(I8
I0
tp2592
ag7
as(I70
I7
tp2593
(lp2594
S'70_7.png'
p2595
aVblank space 7 spaces to the left of rock which is in the row above heart and spade .
p2596
a(I5
I9
tp2597
a(I5
I2
tp2598
ag93
as(I68
I19
tp2599
(lp2600
S'68_19.png'
p2601
aVreach the space left of the house and two spaces left of the star
p2602
a(I8
I0
tp2603
a(I8
I0
tp2604
ag7
as(I83
I29
tp2605
(lp2606
S'83_29.png'
p2607
aVreach the space to the right of the triangle .
p2608
a(I9
I8
tp2609
a(I9
I8
tp2610
ag7
as(I69
I18
tp2611
(lp2612
S'69_18.png'
p2613
aVreach cell one below the heart
p2614
a(I7
I2
tp2615
a(I7
I2
tp2616
ag7
as(I84
I30
tp2617
(lp2618
S'84_30.png'
p2619
aVmove to one below rock between tree and diamond
p2620
a(I5
I4
tp2621
a(I5
I4
tp2622
ag7
as(I80
I22
tp2623
(lp2624
S'80_22.png'
p2625
aVreach square with heart
p2626
a(I4
I2
tp2627
a(I4
I2
tp2628
ag7
as(I70
I25
tp2629
(lp2630
S'70_25.png'
p2631
aVmove to the rock that is one cell above and to the left of the heart
p2632
a(I5
I2
tp2633
a(I5
I2
tp2634
ag7
as(I83
I3
tp2635
(lp2636
S'83_3.png'
p2637
aVreach the rock
p2638
a(I2
I4
tp2639
a(I3
I4
tp2640
ag93
as(I77
I25
tp2641
(lp2642
S'77_25.png'
p2643
aVreach the circle .
p2644
a(I4
I5
tp2645
a(I4
I5
tp2646
ag7
as(I71
I28
tp2647
(lp2648
S'71_28.png'
p2649
aVreach space one below triangle
p2650
a(I4
I1
tp2651
a(I4
I1
tp2652
ag7
as(I84
I4
tp2653
(lp2654
S'84_4.png'
p2655
aVreach cell below square to the right
p2656
a(I6
I6
tp2657
a(I6
I6
tp2658
ag7
as(I82
I20
tp2659
(lp2660
S'82_20.png'
p2661
aVreach the horse that is to the right of the star .
p2662
a(I6
I7
tp2663
a(I6
I7
tp2664
ag7
as(I76
I34
tp2665
(lp2666
S'76_34.png'
p2667
aVone cell below left of star and two right of rock
p2668
a(I7
I0
tp2669
a(I7
I4
tp2670
ag93
as(I77
I35
tp2671
(lp2672
S'77_35.png'
p2673
aVreach space one space below circle .
p2674
a(I5
I5
tp2675
a(I5
I5
tp2676
ag7
as(I73
I3
tp2677
(lp2678
S'73_3.png'
p2679
aVgo to the cell to the left of the heart
p2680
a(g24
(g28
S'\x06\x00\x00\x00\x00\x00\x00\x00'
p2681
tp2682
Rp2683
g24
(g28
S'\x02\x00\x00\x00\x00\x00\x00\x00'
p2684
tp2685
Rp2686
tp2687
a(I6
I2
tp2688
ag7
as(I78
I24
tp2689
(lp2690
S'78_24.png'
p2691
aVreach cell 2 cells above blue circle
p2692
a(I5
I7
tp2693
a(I5
I7
tp2694
ag7
as(I74
I24
tp2695
(lp2696
S'74_24.png'
p2697
aVreach square that is two to the left of the rock that is beneath the diamond .
p2698
a(I7
I1
tp2699
a(I7
I1
tp2700
ag7
as(I79
I29
tp2701
(lp2702
S'79_29.png'
p2703
aVreach the cell two right of the tree
p2704
a(I9
I4
tp2705
a(I9
I4
tp2706
ag7
as(I75
I21
tp2707
(lp2708
S'75_21.png'
p2709
aVreach the cell to the top right of the blue circle
p2710
a(I1
I5
tp2711
a(I1
I5
tp2712
ag7
as(I78
I2
tp2713
(lp2714
S'78_2.png'
p2715
aVreach cell with the triangle
p2716
a(I9
I7
tp2717
a(I9
I7
tp2718
ag7
as(I76
I22
tp2719
(lp2720
S'76_22.png'
p2721
aVreach cell with horse below rock above spade
p2722
a(I5
I2
tp2723
a(I5
I2
tp2724
ag7
as(I65
I31
tp2725
(lp2726
S'65_31.png'
p2727
aVreach the cell one below heart
p2728
a(I3
I9
tp2729
a(I3
I9
tp2730
ag7
as(I77
I23
tp2731
(lp2732
S'77_23.png'
p2733
aVreach the rock that is one above the diamond and one cell to the right .
p2734
a(I5
I7
tp2735
a(I5
I7
tp2736
ag7
as(I66
I28
tp2737
(lp2738
S'66_28.png'
p2739
aVmove cell 2 spaces to the left of the triangle
p2740
a(I8
I7
tp2741
a(I8
I7
tp2742
ag7
as(I78
I36
tp2743
(lp2744
S'78_36.png'
p2745
aVone to the left and circle below .
p2746
a(I6
I8
tp2747
a(I6
I8
tp2748
ag7
as(I67
I1
tp2749
(lp2750
S'67_1.png'
p2751
aVreach cell one cell to the left then one cell down from the diamond
p2752
a(I1
I3
tp2753
a(I1
I3
tp2754
ag7
as(I79
I33
tp2755
(lp2756
S'79_33.png'
p2757
aVleft to the stone and above the spade
p2758
a(I7
I3
tp2759
a(I7
I3
tp2760
ag7
as(I82
I15
tp2761
(lp2762
S'82_15.png'
p2763
aVfind the rock above the triangle
p2764
a(g24
(g28
S'\x05\x00\x00\x00\x00\x00\x00\x00'
p2765
tp2766
Rp2767
g24
(g28
S'\x05\x00\x00\x00\x00\x00\x00\x00'
p2768
tp2769
Rp2770
tp2771
a(I5
I5
tp2772
ag7
as(I83
I34
tp2773
(lp2774
S'83_34.png'
p2775
aVone cell left of circle
p2776
a(I1
I8
tp2777
a(I1
I8
tp2778
ag7
as(I69
I27
tp2779
(lp2780
S'69_27.png'
p2781
aVreach the cell to the right of the tree
p2782
a(I2
I2
tp2783
a(I2
I2
tp2784
ag7
as(I84
I37
tp2785
(lp2786
S'84_37.png'
p2787
aVmove to cell 8 left of house
p2788
a(I9
I1
tp2789
a(I9
I1
tp2790
ag7
as(I67
I39
tp2791
(lp2792
S'67_39.png'
p2793
aVreach square to right of low rock
p2794
a(I7
I7
tp2795
a(I7
I7
tp2796
ag7
as(I80
I13
tp2797
(lp2798
S'80_13.png'
p2799
aVreach the cell below the circle above the house
p2800
a(I3
I1
tp2801
a(I3
I1
tp2802
ag7
as(I70
I16
tp2803
(lp2804
S'70_16.png'
p2805
aVreach the cell with the spade
p2806
a(I8
I7
tp2807
a(I8
I7
tp2808
ag7
as(I68
I32
tp2809
(lp2810
S'68_32.png'
p2811
aVreach cell in star
p2812
a(I8
I2
tp2813
a(I8
I2
tp2814
ag7
as(I83
I8
tp2815
(lp2816
S'83_8.png'
p2817
aVreach the cell above the heart
p2818
a(I2
I3
tp2819
a(I2
I3
tp2820
ag7
as(I81
I8
tp2821
(lp2822
S'81_8.png'
p2823
aVreach circle left of rock
p2824
a(I4
I7
tp2825
a(I4
I7
tp2826
ag7
as(I71
I21
tp2827
(lp2828
S'71_21.png'
p2829
aVreach horse between diamond and heart
p2830
a(g24
(g28
S'\x08\x00\x00\x00\x00\x00\x00\x00'
p2831
tp2832
Rp2833
g24
(g28
S'\x07\x00\x00\x00\x00\x00\x00\x00'
p2834
tp2835
Rp2836
tp2837
a(I8
I7
tp2838
ag7
as(I69
I37
tp2839
(lp2840
S'69_37.png'
p2841
aVreach cell to right of house on top of star
p2842
a(I0
I2
tp2843
a(I1
I2
tp2844
ag93
as(I84
I3
tp2845
(lp2846
S'84_3.png'
p2847
aVreach cell below spade to the right
p2848
a(I4
I7
tp2849
a(I7
I77
tp2850
ag93
as(I73
I34
tp2851
(lp2852
S'73_34.png'
p2853
aVreach target by one square right of the star
p2854
a(g24
(g28
S'\x05\x00\x00\x00\x00\x00\x00\x00'
p2855
tp2856
Rp2857
g24
(g28
S'\t\x00\x00\x00\x00\x00\x00\x00'
p2858
tp2859
Rp2860
tp2861
a(I5
I7
tp2862
ag93
as(I72
I32
tp2863
(lp2864
S'72_32.png'
p2865
aVgo to the house above the spade .
p2866
a(g24
(g28
S'\x06\x00\x00\x00\x00\x00\x00\x00'
p2867
tp2868
Rp2869
g24
(g28
S'\x04\x00\x00\x00\x00\x00\x00\x00'
p2870
tp2871
Rp2872
tp2873
a(I6
I4
tp2874
ag7
as(I81
I34
tp2875
(lp2876
S'81_34.png'
p2877
aVreach cell one left and two up from spade
p2878
a(I1
I4
tp2879
a(I1
I4
tp2880
ag7
as(I73
I4
tp2881
(lp2882
S'73_4.png'
p2883
aVgo 5 cells to the left of the circle
p2884
a(I4
I1
tp2885
a(I4
I1
tp2886
ag7
as(I74
I3
tp2887
(lp2888
S'74_3.png'
p2889
aVdiamond square to left of orange triangle square
p2890
a(I6
I3
tp2891
a(I6
I3
tp2892
ag7
as(I79
I26
tp2893
(lp2894
S'79_26.png'
p2895
aVreach cell with the diamond
p2896
a(I8
I1
tp2897
a(I8
I1
tp2898
ag7
as(I75
I10
tp2899
(lp2900
S'75_10.png'
p2901
aVmove to the cell one below and one to the right of the star .
p2902
a(g24
(g28
S'\x06\x00\x00\x00\x00\x00\x00\x00'
p2903
tp2904
Rp2905
g24
(g28
S'\x03\x00\x00\x00\x00\x00\x00\x00'
p2906
tp2907
Rp2908
tp2909
a(I6
I3
tp2910
ag7
as(I78
I5
tp2911
(lp2912
S'78_5.png'
p2913
aVreach cell between two horses
p2914
a(I0
I4
tp2915
a(I0
I4
tp2916
ag7
as(I76
I13
tp2917
(lp2918
S'76_13.png'
p2919
aVreach two right from the spade and down one .
p2920
a(I7
I4
tp2921
a(I7
I4
tp2922
ag7
as(I65
I16
tp2923
(lp2924
S'65_16.png'
p2925
aVgo to the space above the triangle
p2926
a(I8
I8
tp2927
a(I8
I8
tp2928
ag7
as(I79
I0
tp2929
(lp2930
S'79_0.png'
p2931
aVreach the cell with the heart
p2932
a(I9
I0
tp2933
a(I9
I0
tp2934
ag7
as(I66
I23
tp2935
(lp2936
S'66_23.png'
p2937
aVmove cell 2 spaces down from the circle
p2938
a(I2
I6
tp2939
a(I2
I6
tp2940
ag7
as(I67
I6
tp2941
(lp2942
S'67_6.png'
p2943
aVreach cell up from the heart
p2944
a(I2
I2
tp2945
a(I2
I2
tp2946
ag7
as(I65
I10
tp2947
(lp2948
S'65_10.png'
p2949
aVgo to two up from the tree
p2950
a(I7
I9
tp2951
a(I7
I9
tp2952
ag7
as(I68
I1
tp2953
(lp2954
S'68_1.png'
p2955
aVreach cell 2 below circle
p2956
a(I9
I5
tp2957
a(I9
I5
tp2958
ag7
as(I80
I4
tp2959
(lp2960
S'80_4.png'
p2961
aVbelow the leftmost house
p2962
a(I5
I1
tp2963
a(I5
I1
tp2964
ag7
as(I70
I11
tp2965
(lp2966
S'70_11.png'
p2967
aVreach the cell right to the spade and bottom and right to the circle
p2968
a(g24
(g28
S'\x08\x00\x00\x00\x00\x00\x00\x00'
p2969
tp2970
Rp2971
g24
(g28
S'\x08\x00\x00\x00\x00\x00\x00\x00'
p2972
tp2973
Rp2974
tp2975
a(I8
I8
tp2976
ag7
as(I81
I1
tp2977
(lp2978
S'81_1.png'
p2979
aVreach cell two below circle and two to left of heart
p2980
a(I6
I7
tp2981
a(I6
I7
tp2982
ag7
as(I84
I10
tp2983
(lp2984
S'84_10.png'
p2985
aVreach cell to left of the triangle
p2986
a(I7
I1
tp2987
a(I7
I1
tp2988
ag7
as(I82
I6
tp2989
(lp2990
S'82_6.png'
p2991
aVreach spade
p2992
a(I8
I1
tp2993
a(I8
I1
tp2994
ag7
as(I80
I26
tp2995
(lp2996
S'80_26.png'
p2997
aVreach square to the left of the house that is to the left of the heart
p2998
a(I4
I0
tp2999
a(I4
I0
tp3000
ag7
as(I74
I32
tp3001
(lp3002
S'74_32.png'
p3003
aVreach orange triangle
p3004
a(I6
I4
tp3005
a(I6
I4
tp3006
ag7
as(I81
I27
tp3007
(lp3008
S'81_27.png'
p3009
aVreach the horse one cell up and to the right of the spade .
p3010
ag1409
a(I2
I6
tp3011
ag7
as(I73
I13
tp3012
(lp3013
S'73_13.png'
p3014
aVreach cell to right of top horse .
p3015
a(I3
I7
tp3016
a(I3
I7
tp3017
ag7
as(I74
I10
tp3018
(lp3019
S'74_10.png'
p3020
aVreach the cell two spot below spade right of house .
p3021
a(I7
I5
tp3022
a(I7
I5
tp3023
ag7
as(I72
I22
tp3024
(lp3025
S'72_22.png'
p3026
aVabove heart
p3027
a(g24
(g28
S'\x07\x00\x00\x00\x00\x00\x00\x00'
p3028
tp3029
Rp3030
g24
(g28
S'\x05\x00\x00\x00\x00\x00\x00\x00'
p3031
tp3032
Rp3033
tp3034
a(I7
I5
tp3035
ag7
as(I75
I3
tp3036
(lp3037
S'75_3.png'
p3038
aVreach horse between heart and tree .
p3039
a(I7
I9
tp3040
a(I7
I9
tp3041
ag7
as(I78
I12
tp3042
(lp3043
S'78_12.png'
p3044
aVreach rock above a spade
p3045
a(I8
I9
tp3046
a(I8
I9
tp3047
ag7
as(I76
I4
tp3048
(lp3049
S'76_4.png'
p3050
aVreach the square near the treee
p3051
a(I3
I0
tp3052
a(I2
I7
tp3053
ag93
as(I74
I20
tp3054
(lp3055
S'74_20.png'
p3056
aVreach square with rock between star and heart .
p3057
a(I0
I5
tp3058
a(I0
I5
tp3059
ag7
as(I79
I9
tp3060
(lp3061
S'79_9.png'
p3062
aVreach the cell one right and two below the star
p3063
ag2025
a(I8
I5
tp3064
ag7
as(I77
I9
tp3065
(lp3066
S'77_9.png'
p3067
aVreach the house that is one space above and two spaces right of the spade
p3068
a(I1
I8
tp3069
a(I1
I8
tp3070
ag7
as(I75
I25
tp3071
(lp3072
S'75_25.png'
p3073
aVreach the cell two spaces below the horse and two spaces above the star
p3074
a(I3
I2
tp3075
a(I3
I2
tp3076
ag7
as(I67
I15
tp3077
(lp3078
S'67_15.png'
p3079
aVreach rock left of house .
p3080
a(g24
(g28
S'\x01\x00\x00\x00\x00\x00\x00\x00'
p3081
tp3082
Rp3083
g24
(g28
S'\x02\x00\x00\x00\x00\x00\x00\x00'
p3084
tp3085
Rp3086
tp3087
a(I1
I2
tp3088
ag7
as(I68
I8
tp3089
(lp3090
S'68_8.png'
p3091
aVreach cell 3 left of diamond
p3092
a(I6
I1
tp3093
a(I6
I1
tp3094
ag7
as(I66
I8
tp3095
(lp3096
S'66_8.png'
p3097
aVreach the cell that is below the circle and between the two rocks .
p3098
a(I1
I6
tp3099
a(I1
I6
tp3100
ag7
as(I69
I13
tp3101
(lp3102
S'69_13.png'
p3103
aVreach cell on to the left and one below the spade
p3104
a(I4
I0
tp3105
a(I4
I0
tp3106
ag7
as(I67
I21
tp3107
(lp3108
S'67_21.png'
p3109
aVreach cell below the horse near the star
p3110
a(I7
I8
tp3111
a(I7
I8
tp3112
ag7
as(I65
I37
tp3113
(lp3114
S'65_37.png'
p3115
aVreach the cell one below spade
p3116
a(I5
I9
tp3117
a(I5
I9
tp3118
ag7
as(I70
I2
tp3119
(lp3120
S'70_2.png'
p3121
aVblank space to the right of rock and 4th space above triangle .
p3122
a(I3
I6
tp3123
a(I3
I6
tp3124
ag7
as(I68
I22
tp3125
(lp3126
S'68_22.png'
p3127
aVreach goal three squares above star .
p3128
a(I5
I2
tp3129
a(I5
I2
tp3130
ag7
as(I83
I22
tp3131
(lp3132
S'83_22.png'
p3133
aVreach the rock
p3134
ag2639
a(I2
I4
tp3135
ag7
as(I66
I34
tp3136
(lp3137
S'66_34.png'
p3138
aVreach cell 4 from tree , 2 under yellow star
p3139
a(I7
I5
tp3140
a(I7
I5
tp3141
ag7
as(I69
I23
tp3142
(lp3143
S'69_23.png'
p3144
aVreach cell above the diamond
p3145
a(I6
I0
tp3146
a(I6
I0
tp3147
ag7
as(I84
I17
tp3148
(lp3149
S'84_17.png'
p3150
aVreach the cell that is two cells to the left of the heart
p3151
a(I8
I6
tp3152
a(I8
I6
tp3153
ag7
as(I82
I1
tp3154
(lp3155
S'82_1.png'
p3156
aVreach cell above and 1 right of horse closest to star
p3157
a(I5
I8
tp3158
a(I5
I8
tp3159
ag7
as(I80
I17
tp3160
(lp3161
S'80_17.png'
p3162
aVreach the cell below the circle
p3163
a(I3
I2
tp3164
a(I3
I2
tp3165
ag7
as(I70
I36
tp3166
(lp3167
S'70_36.png'
p3168
aVthe house that is one down and one to the left of the tree
p3169
a(I9
I5
tp3170
a(I9
I5
tp3171
ag7
as(I81
I28
tp3172
(lp3173
S'81_28.png'
p3174
aVreach the rock one cell to the left of the circle
p3175
a(I4
I8
tp3176
a(I4
I8
tp3177
ag7
as(I71
I33
tp3178
(lp3179
S'71_33.png'
p3180
aVone below orange triangle
p3181
a(I4
I1
tp3182
a(I4
I1
tp3183
ag7
as(I75
I34
tp3184
(lp3185
S'75_34.png'
p3186
aVreach the house to the top right of circle
p3187
a(g24
(g28
S'\x01\x00\x00\x00\x00\x00\x00\x00'
p3188
tp3189
Rp3190
g24
(g28
S'\x05\x00\x00\x00\x00\x00\x00\x00'
p3191
tp3192
Rp3193
tp3194
a(I1
I5
tp3195
ag7
as(I82
I27
tp3196
(lp3197
S'82_27.png'
p3198
aVreach the rock that is to the left of the diamond
p3199
a(g24
(g28
S'\x08\x00\x00\x00\x00\x00\x00\x00'
p3200
tp3201
Rp3202
g24
(g28
S'\x04\x00\x00\x00\x00\x00\x00\x00'
p3203
tp3204
Rp3205
tp3206
a(I8
I4
tp3207
ag7
as(I76
I37
tp3208
(lp3209
S'76_37.png'
p3210
aVcell one down three left og rock
p3211
a(I8
I0
tp3212
a(I9
I0
tp3213
ag93
as(I72
I29
tp3214
(lp3215
S'72_29.png'
p3216
aVthe yellow star , between th tree and triangle
p3217
a(I6
I6
tp3218
a(I6
I6
tp3219
ag7
as(I78
I23
tp3220
(lp3221
S'78_23.png'
p3222
aVreach tree between green triangle and spade
p3223
a(I9
I8
tp3224
a(I9
I8
tp3225
ag7
as(I76
I3
tp3226
(lp3227
S'76_3.png'
p3228
aVreach the square which has sone
p3229
a(I4
I2
tp3230
a(I4
I2
tp3231
ag7
as(I74
I31
tp3232
(lp3233
S'74_31.png'
p3234
aVreach cell one below and two to the left of the rock
p3235
a(I8
I1
tp3236
a(I8
I1
tp3237
ag7
as(I79
I22
tp3238
(lp3239
S'79_22.png'
p3240
aVreach cell with the circle
p3241
a(I7
I3
tp3242
a(I7
I3
tp3243
ag7
as(I77
I2
tp3244
(lp3245
S'77_2.png'
p3246
aVgo to the rock one space above the heart to the right
p3247
a(I2
I1
tp3248
a(I2
I1
tp3249
ag7
as(I75
I30
tp3250
(lp3251
S'75_30.png'
p3252
aVreach cell above and to the right of rock
p3253
a(I4
I9
tp3254
a(I4
I9
tp3255
ag7
as(I76
I25
tp3256
(lp3257
S'76_25.png'
p3258
aVreach cell to the right of the spade
p3259
a(I6
I3
tp3260
a(I6
I3
tp3261
ag7
as(I77
I28
tp3262
(lp3263
S'77_28.png'
p3264
aVreach the cell that is one row above the spade and two to the left of the spade .
p3265
a(I1
I4
tp3266
a(I1
I4
tp3267
ag7
as(I66
I3
tp3268
(lp3269
S'66_3.png'
p3270
aVreach cell that is to the left of the triangle
p3271
a(I8
I8
tp3272
a(I8
I8
tp3273
ag7
as(I78
I35
tp3274
(lp3275
S'78_35.png'
p3276
aVone below the circle , left of the horse
p3277
a(I8
I7
tp3278
a(I8
I7
tp3279
ag7
as(I67
I26
tp3280
(lp3281
S'67_26.png'
p3282
aVreach the blue circle
p3283
a(I6
I5
tp3284
a(I6
I5
tp3285
ag7
as(I70
I5
tp3286
(lp3287
S'70_5.png'
p3288
aVrock above heart and one space to the left .
p3289
a(I5
I2
tp3290
a(I5
I2
tp3291
ag7
as(I68
I29
tp3292
(lp3293
S'68_29.png'
p3294
aVreach goal above tree and one line above and left of diamond .
p3295
a(I5
I3
tp3296
a(I5
I3
tp3297
ag7
as(I83
I31
tp3298
(lp3299
S'83_31.png'
p3300
aVone space to the left of the circle
p3301
a(I1
I8
tp3302
a(I1
I8
tp3303
ag7
as(I69
I16
tp3304
(lp3305
S'69_16.png'
p3306
aVreach house one to the right of the spade
p3307
a(I3
I2
tp3308
a(I3
I2
tp3309
ag7
as(I84
I24
tp3310
(lp3311
S'84_24.png'
p3312
aVreach tree above the star .
p3313
a(I5
I3
tp3314
a(I5
I3
tp3315
ag7
as(I67
I32
tp3316
(lp3317
S'67_32.png'
p3318
aVreach star to right of tree
p3319
a(I5
I7
tp3320
a(I5
I7
tp3321
ag7
as(I80
I8
tp3322
(lp3323
S'80_8.png'
p3324
aVtwo left of the circle
p3325
a(I2
I0
tp3326
a(I2
I0
tp3327
ag7
as(I70
I31
tp3328
(lp3329
S'70_31.png'
p3330
aVone cell up from the heart
p3331
a(I5
I3
tp3332
a(I5
I3
tp3333
ag7
as(I83
I5
tp3334
(lp3335
S'83_5.png'
p3336
aVreach the cell at bottom of spade
p3337
a(I2
I5
tp3338
a(I2
I5
tp3339
ag7
as(I81
I21
tp3340
(lp3341
S'81_21.png'
p3342
aVreach the cell two spaces to the right of the spade
p3343
a(I3
I7
tp3344
a(I3
I7
tp3345
ag7
as(I71
I30
tp3346
(lp3347
S'71_30.png'
p3348
aVgo one left of star and one up
p3349
a(I6
I0
tp3350
a(I6
I0
tp3351
ag7
as(I84
I6
tp3352
(lp3353
S'84_6.png'
p3354
aVreach cell below spade to the right
p3355
a(I4
I7
tp3356
a(I6
I7
tp3357
ag93
as(I82
I18
tp3358
(lp3359
S'82_18.png'
p3360
aVfind the cell one to the right of the spade
p3361
a(I8
I2
tp3362
a(I8
I2
tp3363
ag7
as(I77
I33
tp3364
(lp3365
S'77_33.png'
p3366
aVreach space 2 spaces below red heart one one space to the right .
p3367
a(I5
I1
tp3368
a(I5
I0
tp3369
ag93
as(I73
I1
tp3370
(lp3371
S'73_1.png'
p3372
aVgo to cell to the right of the diamond
p3373
a(I6
I7
tp3374
a(I6
I7
tp3375
ag7
as(I78
I30
tp3376
(lp3377
S'78_30.png'
p3378
aVbrown horse galloping
p3379
a(I8
I8
tp3380
a(I8
I8
tp3381
ag7
as(I74
I6
tp3382
(lp3383
S'74_6.png'
p3384
aVtwo squares right of blue circle and one aquare right of horse
p3385
a(I4
I7
tp3386
a(I4
I7
tp3387
ag7
as(I79
I31
tp3388
(lp3389
S'79_31.png'
p3390
aVcircle left to the stone and above spade
p3391
as(I75
I23
tp3392
(lp3393
S'75_23.png'
p3394
aVreach the cell below the blue circle
p3395
a(I3
I4
tp3396
a(I3
I4
tp3397
ag7
as(I78
I0
tp3398
(lp3399
S'78_0.png'
p3400
aVreach cell with the heart
p3401
a(I1
I4
tp3402
a(I1
I4
tp3403
ag7
as(I76
I16
tp3404
(lp3405
S'76_16.png'
p3406
aVmove two right from the horse .
p3407
a(I5
I4
tp3408
a(I5
I4
tp3409
ag7
as(I65
I29
tp3410
(lp3411
S'65_29.png'
p3412
aVreach two cells above heart
p3413
a(I0
I9
tp3414
a(I0
I9
tp3415
ag7
as(I79
I5
tp3416
(lp3417
S'79_5.png'
p3418
aVreach the cell one right of the horse
p3419
a(I7
I2
tp3420
a(I7
I2
tp3421
ag7
as(I77
I21
tp3422
(lp3423
S'77_21.png'
p3424
aVreach the cell to the left of the diamond .
p3425
a(I6
I5
tp3426
a(I6
I5
tp3427
ag7
as(I66
I26
tp3428
(lp3429
S'66_26.png'
p3430
aVmove cell in between the triangle and the heard
p3431
a(I7
I9
tp3432
a(I9
I9
tp3433
ag93
as(I67
I3
tp3434
(lp3435
S'67_3.png'
p3436
aVreach cell to the right of the diamond
p3437
a(I0
I5
tp3438
a(I0
I5
tp3439
ag7
as(I79
I35
tp3440
(lp3441
S'79_35.png'
p3442
aVhouse left to horse and in the row of heart
p3443
a(I7
I0
tp3444
a(I7
I0
tp3445
ag7
as(I68
I4
tp3446
(lp3447
S'68_4.png'
p3448
aVreach cell 1 below star and 2 left of star
p3449
a(I9
I0
tp3450
a(I9
I0
tp3451
ag7
as(I83
I36
tp3452
(lp3453
S'83_36.png'
p3454
aVone cell left of spade
p3455
a(I1
I4
tp3456
a(I1
I4
tp3457
ag7
as(I69
I25
tp3458
(lp3459
S'69_25.png'
p3460
aVreach the cell with the diamond
p3461
a(I7
I0
tp3462
a(I7
I0
tp3463
ag7
as(I84
I39
tp3464
(lp3465
S'84_39.png'
p3466
aVmove to cell 2 left of triangle
p3467
a(I7
I0
tp3468
a(I7
I0
tp3469
ag7
as(I80
I15
tp3470
(lp3471
S'80_15.png'
p3472
aVreach the cell to the right of the triangle
p3473
a(I3
I4
tp3474
a(I3
I4
tp3475
ag7
as(I70
I22
tp3476
(lp3477
S'70_22.png'
p3478
aVmove to the house one space up from the start and two spaces left of the rock
p3479
a(I3
I3
tp3480
a(I3
I3
tp3481
ag7
as(I68
I34
tp3482
(lp3483
S'68_34.png'
p3484
aVgo to the cell below the spade
p3485
a(I9
I3
tp3486
a(I9
I3
tp3487
ag7
as(I81
I14
tp3488
(lp3489
S'81_14.png'
p3490
aVtwo above star
p3491
a(I6
I0
tp3492
a(I6
I0
tp3493
ag7
as(I71
I23
tp3494
(lp3495
S'71_23.png'
p3496
aVreach horse one above spade
p3497
a(I3
I0
tp3498
a(I3
I0
tp3499
ag7
as(I69
I35
tp3500
(lp3501
S'69_35.png'
p3502
aVreach space left of house and under tree
p3503
a(I3
I1
tp3504
a(I3
I1
tp3505
ag7
as(I84
I13
tp3506
(lp3507
S'84_13.png'
p3508
aVreach cell that is to the lower right of the diamond
p3509
a(I6
I6
tp3510
a(I6
I6
tp3511
ag7
as(I73
I32
tp3512
(lp3513
S'73_32.png'
p3514
aVreach target two square above the star
p3515
a(I3
I8
tp3516
a(I3
I8
tp3517
ag7
as(I74
I39
tp3518
(lp3519
S'74_39.png'
p3520
aVreach the cell two to the left of the diamond
p3521
a(I6
I1
tp3522
a(I6
I1
tp3523
ag7
as(I81
I32
tp3524
(lp3525
S'81_32.png'
p3526
aVreach cell two of up from spade
p3527
a(I1
I5
tp3528
a(I1
I5
tp3529
ag7
as(I73
I10
tp3530
(lp3531
S'73_10.png'
p3532
aVreach cell with bottom horse .
p3533
a(I9
I2
tp3534
a(I9
I2
tp3535
ag7
as(I68
I28
tp3536
(lp3537
S'68_28.png'
p3538
aVreach goal below house .
p3539
a(I9
I1
tp3540
a(I9
I1
tp3541
ag7
as(I74
I1
tp3542
(lp3543
S'74_1.png'
p3544
aVtriangle square right of diamond
p3545
a(I6
I4
tp3546
a(I6
I4
tp3547
ag7
as(I75
I12
tp3548
(lp3549
S'75_12.png'
p3550
aVmove to the cell one above and one to the left of the diamond .
p3551
a(g24
(g28
S'\x03\x00\x00\x00\x00\x00\x00\x00'
p3552
tp3553
Rp3554
g24
(g28
S'\x06\x00\x00\x00\x00\x00\x00\x00'
p3555
tp3556
Rp3557
tp3558
a(I3
I6
tp3559
ag7
as(I78
I11
tp3560
(lp3561
S'78_11.png'
p3562
aVreach tree one below a horse
p3563
a(I9
I8
tp3564
a(I9
I8
tp3565
ag7
as(I76
I15
tp3566
(lp3567
S'76_15.png'
p3568
aVreach two down from the star .
p3569
a(I8
I1
tp3570
a(I8
I1
tp3571
ag7
as(I65
I22
tp3572
(lp3573
S'65_22.png'
p3574
aVreach one cell left of diamond
p3575
a(I8
I7
tp3576
a(I8
I7
tp3577
ag7
as(I79
I2
tp3578
(lp3579
S'79_2.png'
p3580
aVreach the cell two to the right and one above the star
p3581
a(I5
I6
tp3582
a(I5
I6
tp3583
ag7
as(I66
I21
tp3584
(lp3585
S'66_21.png'
p3586
aVmove cell 3 spaces down from the circle
p3587
a(I3
I6
tp3588
a(I3
I6
tp3589
ag7
as(I67
I8
tp3590
(lp3591
S'67_8.png'
p3592
aVreach cell down and then left from the diamond
p3593
ag2227
a(I1
I3
tp3594
ag7
as(I68
I3
tp3595
(lp3596
S'68_3.png'
p3597
aVreach cell 1 above circle and to right of diamond
p3598
a(I6
I5
tp3599
a(I6
I5
tp3600
ag7
as(I66
I15
tp3601
(lp3602
S'66_15.png'
p3603
aVreach cell two spaces left of star
p3604
a(I5
I4
tp3605
a(I5
I4
tp3606
ag7
as(I65
I34
tp3607
(lp3608
S'65_34.png'
p3609
aVreach the cell one to the north of spade
p3610
a(I2
I9
tp3611
a(I3
I9
tp3612
ag93
as(I80
I6
tp3613
(lp3614
S'80_6.png'
p3615
aVtwo down and one right of the leftmost house
p3616
a(I6
I2
tp3617
a(I6
I2
tp3618
ag7
as(I70
I9
tp3619
(lp3620
S'70_9.png'
p3621
aVspace below green diamond .
p3622
a(I9
I7
tp3623
a(I9
I7
tp3624
ag7
as(I81
I7
tp3625
(lp3626
S'81_7.png'
p3627
aVreach house one below triangle
p3628
a(g24
(g28
S'\t\x00\x00\x00\x00\x00\x00\x00'
p3629
tp3630
Rp3631
g24
(g28
S'\x01\x00\x00\x00\x00\x00\x00\x00'
p3632
tp3633
Rp3634
tp3635
a(I9
I1
tp3636
ag7
as(I84
I20
tp3637
(lp3638
S'84_20.png'
p3639
aVreach cell one below and to the right of the heart .
p3640
a(I9
I9
tp3641
a(I9
I9
tp3642
ag7
as(I82
I4
tp3643
(lp3644
S'82_4.png'
p3645
aVreach tree under horse
p3646
a(I7
I7
tp3647
a(I7
I7
tp3648
ag7
as(I80
I28
tp3649
(lp3650
S'80_28.png'
p3651
aVreach the square with the house that is one square down and one square to the right of the spade
p3652
a(I5
I4
tp3653
a(I5
I4
tp3654
ag7
as(I70
I35
tp3655
(lp3656
S'70_35.png'
p3657
aVtwo up from the heart
p3658
a(I4
I3
tp3659
a(I4
I3
tp3660
ag7
as(I81
I25
tp3661
(lp3662
S'81_25.png'
p3663
aVreach the cell one cell below the circle and one cell to the left of the diamond
p3664
a(I5
I7
tp3665
a(I5
I7
tp3666
ag7
as(I82
I30
tp3667
(lp3668
S'82_30.png'
p3669
aVreach the space to the right of the triangle
p3670
a(I6
I6
tp3671
a(I6
I6
tp3672
ag7
as(I74
I8
tp3673
(lp3674
S'74_8.png'
p3675
aVtwo squares right of rock , one square right of purple house , one square down
p3676
a(I8
I5
tp3677
a(I8
I5
tp3678
ag7
as(I72
I24
tp3679
(lp3680
S'72_24.png'
p3681
aVbetween rock and tree
p3682
a(I6
I4
tp3683
a(I6
I4
tp3684
ag7
as(I75
I5
tp3685
(lp3686
S'75_5.png'
p3687
aVreach horse left of and one down from star .
p3688
a(I6
I3
tp3689
a(I6
I3
tp3690
ag7
as(I78
I18
tp3691
(lp3692
S'78_18.png'
p3693
aVreach cell three right of tree , three above spade
p3694
a(I6
I9
tp3695
a(I6
I9
tp3696
ag7
as(I76
I6
tp3697
(lp3698
S'76_6.png'
p3699
aVreach the square which is near the tree
p3700
a(I2
I7
tp3701
a(I2
I7
tp3702
ag7
as(I74
I18
tp3703
(lp3704
S'74_18.png'
p3705
aVreach the tree .
p3706
a(g24
(g28
S'\x01\x00\x00\x00\x00\x00\x00\x00'
p3707
tp3708
Rp3709
g24
(g28
S'\x07\x00\x00\x00\x00\x00\x00\x00'
p3710
tp3711
Rp3712
tp3713
a(I1
I7
tp3714
ag7
as(I79
I11
tp3715
(lp3716
S'79_11.png'
p3717
aVreach cell to bottom square under rock
p3718
a(I9
I5
tp3719
a(I9
I5
tp3720
ag7
as(I77
I7
tp3721
(lp3722
S'77_7.png'
p3723
aVgo to the area two right of the circle and directly above the rock
p3724
a(I4
I7
tp3725
a(I4
I7
tp3726
ag7
as(I75
I27
tp3727
(lp3728
S'75_27.png'
p3729
aVreach the cell to the left of the tree and orange triangle
p3730
a(I1
I2
tp3731
a(I1
I2
tp3732
ag7
as(I76
I28
tp3733
(lp3734
S'76_28.png'
p3735
aVreach cell one below rock and two below spade
p3736
a(I8
I2
tp3737
a(I8
I2
tp3738
ag7
as(I68
I10
tp3739
(lp3740
S'68_10.png'
p3741
aVreach the star
p3742
a(I8
I2
tp3743
a(I8
I2
tp3744
ag7
as(I66
I6
tp3745
(lp3746
S'66_6.png'
p3747
aVreach the cell that is three spaces to the right of the star
p3748
a(g24
(g28
S'\x05\x00\x00\x00\x00\x00\x00\x00'
p3749
tp3750
Rp3751
g24
(g28
S'\t\x00\x00\x00\x00\x00\x00\x00'
p3752
tp3753
Rp3754
tp3755
a(I5
I9
tp3756
ag7
as(I69
I11
tp3757
(lp3758
S'69_11.png'
p3759
aVreach house one below the diamond
p3760
a(I8
I0
tp3761
a(I8
I0
tp3762
ag7
as(I67
I23
tp3763
(lp3764
S'67_23.png'
p3765
aVreach cell to the right of the circle
p3766
a(I6
I6
tp3767
a(I6
I6
tp3768
ag7
as(I70
I0
tp3769
(lp3770
S'70_0.png'
p3771
aVred heart to the left of spade and above rock .
p3772
a(I6
I3
tp3773
a(I6
I3
tp3774
ag7
as(I68
I16
tp3775
(lp3776
S'68_16.png'
p3777
aVreach the house to the left of the star
p3778
a(g24
(g28
S'\x08\x00\x00\x00\x00\x00\x00\x00'
p3779
tp3780
Rp3781
g24
(g28
S'\x01\x00\x00\x00\x00\x00\x00\x00'
p3782
tp3783
Rp3784
tp3785
a(I8
I1
tp3786
ag7
as(I83
I24
tp3787
(lp3788
S'83_24.png'
p3789
aVreach the space 2 to the left of the star .
p3790
a(I0
I3
tp3791
a(I0
I3
tp3792
ag7
as(I66
I32
tp3793
(lp3794
S'66_32.png'
p3795
aVreach cell above yellow star
p3796
a(I4
I6
tp3797
a(I4
I6
tp3798
ag7
as(I69
I21
tp3799
(lp3800
S'69_21.png'
p3801
aVreach cell 2 to the right of the two rocks on the same line as the house
p3802
a(I8
I4
tp3803
a(I8
I3
tp3804
ag93
as(I84
I19
tp3805
(lp3806
S'84_19.png'
p3807
aVreach the cell below the horse and to the right of the heart
p3808
a(I8
I9
tp3809
a(I9
I8
tp3810
ag93
as(I80
I19
tp3811
(lp3812
S'80_19.png'
p3813
aVreach the cell two spaces below the spade
p3814
a(I6
I3
tp3815
a(I6
I3
tp3816
ag7
as(I70
I26
tp3817
(lp3818
S'70_26.png'
p3819
aVmove to the cell that is two spaces right and one space up from the circle
p3820
a(I6
I9
tp3821
a(I6
I9
tp3822
ag7
as(I81
I18
tp3823
(lp3824
S'81_18.png'
p3825
aVspace with rock to the right of spade
p3826
a(g24
(g28
S'\x03\x00\x00\x00\x00\x00\x00\x00'
p3827
tp3828
Rp3829
g24
(g28
S'\x06\x00\x00\x00\x00\x00\x00\x00'
p3830
tp3831
Rp3832
tp3833
a(I3
I6
tp3834
ag7
as(I71
I35
tp3835
(lp3836
S'71_35.png'
p3837
aVreach rock to the right of blue circle
p3838
a(I8
I3
tp3839
a(I8
I3
tp3840
ag7
as(I75
I36
tp3841
(lp3842
S'75_36.png'
p3843
aVreach cell directly above star
p3844
a(I4
I2
tp3845
a(I4
I2
tp3846
ag7
as(I82
I25
tp3847
(lp3848
S'82_25.png'
p3849
aVreach the rock that is one left of the spade and one up from the cricle
p3850
a(I6
I0
tp3851
a(I6
I0
tp3852
ag7
as(I76
I39
tp3853
(lp3854
S'76_39.png'
p3855
aVone cell below spade
p3856
a(I7
I2
tp3857
a(I2
I7
tp3858
ag93
as(I72
I31
tp3859
(lp3860
S'72_31.png'
p3861
aVmove two spaces right of the heart .
p3862
a(I8
I7
tp3863
a(I8
I7
tp3864
ag7
as(I77
I38
tp3865
(lp3866
S'77_38.png'
p3867
aVreach space two spaces right of circle .
p3868
a(I4
I7
tp3869
a(I4
I7
tp3870
ag7
as(I73
I30
tp3871
(lp3872
S'73_30.png'
p3873
aVreach target one square below the house
p3874
a(I6
I5
tp3875
a(I6
I5
tp3876
ag7
as(I78
I21
tp3877
(lp3878
S'78_21.png'
p3879
aVreach horse to the left of the rock
p3880
a(I8
I8
tp3881
a(I8
I8
tp3882
ag7
as(I74
I29
tp3883
(lp3884
S'74_29.png'
p3885
aVreach square that has the horse that is two squares above the circle .
p3886
ag1050
a(I2
I5
tp3887
ag7
as(I79
I16
tp3888
(lp3889
S'79_16.png'
p3890
aVreach cell to spade
p3891
a(I8
I3
tp3892
a(I8
I3
tp3893
ag7
as(I77
I0
tp3894
(lp3895
S'77_0.png'
p3896
aVgo to the heart two spaces left of the triangle
p3897
a(I3
I0
tp3898
a(I3
I0
tp3899
ag7
as(I75
I16
tp3900
(lp3901
S'75_16.png'
p3902
aVmove to the cell between the house and the tree .
p3903
a(I1
I4
tp3904
a(I1
I4
tp3905
ag7
as(I76
I27
tp3906
(lp3907
S'76_27.png'
p3908
aVreach cell two to the right of the rock and one down
p3909
a(I8
I4
tp3910
a(I5
I5
tp3911
ag93
as(I82
I32
tp3912
(lp3913
S'82_32.png'
p3914
aVreach the space to the left of the circle
p3915
a(I7
I0
tp3916
a(I7
I0
tp3917
ag7
as(I65
I26
tp3918
(lp3919
S'65_26.png'
p3920
aVreach one cell left of spade
p3921
a(I4
I8
tp3922
a(I4
I8
tp3923
ag7
as(I77
I26
tp3924
(lp3925
S'77_26.png'
p3926
aVreach the cell that is one below the star .
p3927
a(I4
I6
tp3928
a(I4
I6
tp3929
ag7
as(I66
I1
tp3930
(lp3931
S'66_1.png'
p3932
aVreach cell that is two spaces left to the cirlcle
p3933
a(I0
I8
tp3934
a(I0
I4
tp3935
ag93
as(I78
I33
tp3936
(lp3937
S'78_33.png'
p3938
aVthree below the star
p3939
a(g24
(g28
S'\x06\x00\x00\x00\x00\x00\x00\x00'
p3940
tp3941
Rp3942
g24
(g28
S'\x06\x00\x00\x00\x00\x00\x00\x00'
p3943
tp3944
Rp3945
tp3946
a(I6
I6
tp3947
ag7
as(I67
I28
tp3948
(lp3949
S'67_28.png'
p3950
aVreach one cell below the horse next to the heart
p3951
ag2395
a(I4
I3
tp3952
ag7
as(I79
I36
tp3953
(lp3954
S'79_36.png'
p3955
aVstar above the stone and below the house
p3956
a(I6
I4
tp3957
a(I6
I4
tp3958
ag7
as(I68
I31
tp3959
(lp3960
S'68_31.png'
p3961
aVreach cell one below circle
p3962
a(I8
I5
tp3963
a(I8
I5
tp3964
ag7
as(I83
I33
tp3965
(lp3966
S'83_33.png'
p3967
aVone cell below the tree
p3968
a(I2
I6
tp3969
a(I2
I6
tp3970
ag7
as(I69
I30
tp3971
(lp3972
S'69_30.png'
p3973
aVreach star above tree
p3974
a(I1
I1
tp3975
a(I1
I1
tp3976
ag7
as(I84
I26
tp3977
(lp3978
S'84_26.png'
p3979
aVreach cell to the left and one above the triangle .
p3980
a(I6
I1
tp3981
a(I6
I1
tp3982
ag7
as(I67
I34
tp3983
(lp3984
S'67_34.png'
p3985
aVreach square two below top horse
p3986
a(I5
I3
tp3987
a(I5
I3
tp3988
ag7
as(I80
I10
tp3989
(lp3990
S'80_10.png'
p3991
aVreach cell to the right of rock
p3992
a(I8
I7
tp3993
a(I8
I7
tp3994
ag7
as(I70
I29
tp3995
(lp3996
S'70_29.png'
p3997
aVmove to the triangle
p3998
a(I7
I6
tp3999
a(I7
I6
tp4000
ag7
as(I68
I37
tp4001
(lp4002
S'68_37.png'
p4003
aVgo to the cell two left of the heart
p4004
a(I7
I1
tp4005
a(I7
I1
tp4006
ag7
as(I83
I7
tp4007
(lp4008
S'83_7.png'
p4009
aVreach the tree
p4010
a(I1
I6
tp4011
a(I1
I6
tp4012
ag7
as(I81
I11
tp4013
(lp4014
S'81_11.png'
p4015
aVcircle to the left of rock
p4016
a(I4
I7
tp4017
a(I4
I7
tp4018
ag7
as(I71
I24
tp4019
(lp4020
S'71_24.png'
p4021
aVreach star 4 below triangle
p4022
a(I7
I1
tp4023
a(I7
I1
tp4024
ag7
as(I84
I0
tp4025
(lp4026
S'84_0.png'
p4027
aVreach cell to right of diamond
p4028
a(I5
I6
tp4029
a(I6
I4
tp4030
ag93
as(I82
I16
tp4031
(lp4032
S'82_16.png'
p4033
aVreach the cell one to the left of the tringle
p4034
a(I6
I4
tp4035
a(I6
I4
tp4036
ag7
as(I73
I7
tp4037
(lp4038
S'73_7.png'
p4039
aVgo 3 cells below the house
p4040
a(I8
I5
tp4041
a(I8
I5
tp4042
ag7
as(I78
I28
tp4043
(lp4044
S'78_28.png'
p4045
aVreach tree above yellow star
p4046
a(I2
I6
tp4047
a(I2
I6
tp4048
ag7
as(I74
I4
tp4049
(lp4050
S'74_4.png'
p4051
aVgreen diamond square one square left of orange triangle
p4052
a(I6
I3
tp4053
a(I6
I3
tp4054
ag7
as(I79
I25
tp4055
(lp4056
S'79_25.png'
p4057
aVreach the cell with the house left of the horse
p4058
ag1523
a(I7
I0
tp4059
ag7
as(I75
I9
tp4060
(lp4061
S'75_9.png'
p4062
aVreach triangle above tree .
p4063
a(I0
I3
tp4064
a(I0
I3
tp4065
ag7
as(I78
I6
tp4066
(lp4067
S'78_6.png'
p4068
aVreach cell with the triangle
p4069
a(I9
I7
tp4070
a(I9
I7
tp4071
ag7
as(I76
I18
tp4072
(lp4073
S'76_18.png'
p4074
aVmove to the tree between the triangle and the diamond .
p4075
a(I3
I1
tp4076
a(I3
I1
tp4077
ag7
as(I65
I19
tp4078
(lp4079
S'65_19.png'
p4080
aVgo one space left , one space down from the spade
p4081
a(I5
I8
tp4082
a(I5
I8
tp4083
ag7
as(I79
I7
tp4084
(lp4085
S'79_7.png'
p4086
aVreach the cell one above the heart
p4087
a(I8
I0
tp4088
a(I8
I0
tp4089
ag7
as(I82
I8
tp4090
(lp4091
S'82_8.png'
p4092
aVreach house
p4093
a(g24
(g28
S'\x07\x00\x00\x00\x00\x00\x00\x00'
p4094
tp4095
Rp4096
g24
(g28
S'\x05\x00\x00\x00\x00\x00\x00\x00'
p4097
tp4098
Rp4099
tp4100
a(I7
I5
tp4101
ag7
as(I66
I24
tp4102
(lp4103
S'66_24.png'
p4104
aVmove cell 1 space to the left from the rock and one space down from the star
p4105
a(I6
I5
tp4106
a(I6
I8
tp4107
ag93
as(I67
I5
tp4108
(lp4109
S'67_5.png'
p4110
aVreach the cell one down then one right from the star
p4111
a(I6
I8
tp4112
a(I6
I8
tp4113
ag7
as(I68
I6
tp4114
(lp4115
S'68_6.png'
p4116
aVreach cell 2 below triangle
p4117
a(I9
I4
tp4118
a(I9
I4
tp4119
ag7
as(I83
I38
tp4120
(lp4121
S'83_38.png'
p4122
aVone cell right of spade
p4123
a(g24
(g28
S'\x01\x00\x00\x00\x00\x00\x00\x00'
p4124
tp4125
Rp4126
g24
(g28
S'\x06\x00\x00\x00\x00\x00\x00\x00'
p4127
tp4128
Rp4129
tp4130
a(I1
I6
tp4131
ag7
as(I84
I33
tp4132
(lp4133
S'84_33.png'
p4134
aVmove to cell right of rock above diamond
p4135
a(I4
I5
tp4136
a(I4
I5
tp4137
ag7
as(I77
I31
tp4138
(lp4139
S'77_31.png'
p4140
aVreach space one below the teal spade .
p4141
a(I3
I6
tp4142
a(I2
I5
tp4143
ag93
as(I80
I1
tp4144
(lp4145
S'80_1.png'
p4146
aVleft of the star
p4147
a(I8
I4
tp4148
a(I8
I4
tp4149
ag7
as(I70
I20
tp4150
(lp4151
S'70_20.png'
p4152
aVmove to space two left of star and above rock
p4153
a(I4
I2
tp4154
a(I5
I2
tp4155
ag93
as(I81
I12
tp4156
(lp4157
S'81_12.png'
p4158
aVleft of heart
p4159
a(I6
I8
tp4160
a(I6
I8
tp4161
ag7
as(I69
I33
tp4162
(lp4163
S'69_33.png'
p4164
aVreach house above star
p4165
a(g24
(g28
S'\x00\x00\x00\x00\x00\x00\x00\x00'
p4166
tp4167
Rp4168
g24
(g28
S'\x01\x00\x00\x00\x00\x00\x00\x00'
p4169
tp4170
Rp4171
tp4172
a(I0
I1
tp4173
ag7
as(I84
I15
tp4174
(lp4175
S'84_15.png'
p4176
aVreach cell directly below the diamond
p4177
a(I6
I5
tp4178
a(I6
I5
tp4179
ag7
as(I73
I38
tp4180
(lp4181
S'73_38.png'
p4182
aVreach goal by going 3 squares to the right of the circle
p4183
a(I4
I9
tp4184
a(I4
I9
tp4185
ag7
as(I74
I37
tp4186
(lp4187
S'74_37.png'
p4188
aVreach the lower horse
p4189
a(I4
I6
tp4190
a(I4
I6
tp4191
ag7
as(I81
I38
tp4192
(lp4193
S'81_38.png'
p4194
aVreach cell below triangle
p4195
a(I9
I1
tp4196
a(I9
I1
tp4197
ag7
as(I73
I8
tp4198
(lp4199
S'73_8.png'
p4200
aVgo 3 cells to the left of the house
p4201
a(I5
I2
tp4202
a(I5
I2
tp4203
ag7
as(I74
I15
tp4204
(lp4205
S'74_15.png'
p4206
aVfor cells space below the tree next to house on right..
p4207
a(I5
I7
tp4208
a(I5
I7
tp4209
ag7
as(I75
I14
tp4210
(lp4211
S'75_14.png'
p4212
aVmove to the cell with the tree one above the spade .
p4213
a(I8
I9
tp4214
a(I8
I9
tp4215
ag7
as(I73
I18
tp4216
(lp4217
S'73_18.png'
p4218
aVreach cell between circle and horse .
p4219
a(I4
I7
tp4220
a(I4
I7
tp4221
ag7
as(I78
I9
tp4222
(lp4223
S'78_9.png'
p4224
aVreach cell to the right of a tree and directly above the circle
p4225
a(I6
I7
tp4226
a(I6
I7
tp4227
ag7
as(I76
I9
tp4228
(lp4229
S'76_9.png'
p4230
aVreach the spade
p4231
a(I6
I2
tp4232
a(I6
I2
tp4233
ag7
as(I65
I20
tp4234
(lp4235
S'65_20.png'
p4236
aVreach one cell above diamond and three cell below spade
p4237
ag402
a(I7
I9
tp4238
ag7
as(I79
I12
tp4239
(lp4240
S'79_12.png'
p4241
aVreach cell to bottom square between heat and tree
p4242
a(g24
(g28
S'\t\x00\x00\x00\x00\x00\x00\x00'
p4243
tp4244
Rp4245
g24
(g28
S'\x01\x00\x00\x00\x00\x00\x00\x00'
p4246
tp4247
Rp4248
tp4249
a(I9
I1
tp4250
ag7
as(I66
I19
tp4251
(lp4252
S'66_19.png'
p4253
aVreach house above rock
p4254
a(I0
I5
tp4255
a(I0
I5
tp4256
ag7
as(I67
I10
tp4257
(lp4258
S'67_10.png'
p4259
aVreach cell below diamond .
p4260
a(I1
I4
tp4261
a(I1
I4
tp4262
ag7
as(I82
I34
tp4263
(lp4264
S'82_34.png'
p4265
aVreach the space one space above the circle and one space to the left of the tree
p4266
a(I6
I0
tp4267
a(I6
I0
tp4268
ag7
as(I65
I14
tp4269
(lp4270
S'65_14.png'
p4271
aVgo 2 spaces left , 1 space north of the house located at the top
p4272
a(I0
I7
tp4273
a(I0
I7
tp4274
ag7
as(I68
I13
tp4275
(lp4276
S'68_13.png'
p4277
aVreach the tree left of the diamond
p4278
a(I6
I3
tp4279
a(I6
I3
tp4280
ag7
as(I66
I13
tp4281
(lp4282
S'66_13.png'
p4283
aVreach diamond below house
p4284
a(I1
I9
tp4285
a(I1
I9
tp4286
ag7
as(I67
I16
tp4287
(lp4288
S'67_16.png'
p4289
aVreach goal 1 block above circle .
p4290
a(I5
I5
tp4291
a(I5
I5
tp4292
ag7
as(I65
I32
tp4293
(lp4294
S'65_32.png'
p4295
aVreach the cell one to he right of triangle
p4296
a(g24
(g28
S'\t\x00\x00\x00\x00\x00\x00\x00'
p4297
tp4298
Rp4299
g24
(g28
S'\t\x00\x00\x00\x00\x00\x00\x00'
p4300
tp4301
Rp4302
tp4303
a(I9
I9
tp4304
ag7
as(I70
I15
tp4305
(lp4306
S'70_15.png'
p4307
aVreach the cell bottom and left to the tree
p4308
ag492
a(I9
I5
tp4309
ag7
as(I83
I21
tp4310
(lp4311
S'83_21.png'
p4312
aVreach the space two right of the diamond
p4313
a(I3
I8
tp4314
a(I9
I8
tp4315
ag93
as(I66
I39
tp4316
(lp4317
S'66_39.png'
p4318
aVreach rock cell 2 left from green diamond
p4319
a(I1
I7
tp4320
a(I1
I7
tp4321
ag7
as(I81
I5
tp4322
(lp4323
S'81_5.png'
p4324
aVreach cell below house
p4325
a(I8
I8
tp4326
a(I7
I8
tp4327
ag93
as(I84
I22
tp4328
(lp4329
S'84_22.png'
p4330
aVreach cell with diamond closest to the rock .
p4331
a(I5
I5
tp4332
a(I5
I5
tp4333
ag7
as(I82
I2
tp4334
(lp4335
S'82_2.png'
p4336
aVreach tree under horse
p4337
a(I7
I7
tp4338
a(I7
I7
tp4339
ag7
as(I70
I33
tp4340
(lp4341
S'70_33.png'
p4342
aVthe cell with the rock next to the diamond
p4343
a(I8
I8
tp4344
a(I8
I8
tp4345
ag7
as(I81
I31
tp4346
(lp4347
S'81_31.png'
p4348
aVreach cell one right and two up of triangle
p4349
a(I6
I2
tp4350
a(I6
I2
tp4351
ag7
as(I71
I36
tp4352
(lp4353
S'71_36.png'
p4354
aVreach green diamond to left of the horse
p4355
a(I8
I6
tp4356
a(I8
I6
tp4357
ag7
as(I75
I33
tp4358
(lp4359
S'75_33.png'
p4360
aVreach cell with a star
p4361
a(I5
I2
tp4362
a(I5
I2
tp4363
ag7
as(I82
I28
tp4364
(lp4365
S'82_28.png'
p4366
aVreach the rock that is to the left of the diamond
p4367
a(I8
I4
tp4368
a(I8
I4
tp4369
ag7
as(I72
I38
tp4370
(lp4371
S'72_38.png'
p4372
aVgo to the space above the horse .
p4373
a(I5
I9
tp4374
a(I5
I9
tp4375
ag7
as(I72
I26
tp4376
(lp4377
S'72_26.png'
p4378
aVabove the diamond
p4379
a(I6
I3
tp4380
a(I6
I3
tp4381
ag7
as(I75
I7
tp4382
(lp4383
S'75_7.png'
p4384
aVreach square above heart and right of rock .
p4385
a(I5
I9
tp4386
a(I5
I9
tp4387
ag7
as(I78
I16
tp4388
(lp4389
S'78_16.png'
p4390
aVreach rock right of horse
p4391
a(g24
(g28
S'\x08\x00\x00\x00\x00\x00\x00\x00'
p4392
tp4393
Rp4394
g24
(g28
S'\t\x00\x00\x00\x00\x00\x00\x00'
p4395
tp4396
Rp4397
tp4398
a(I8
I9
tp4399
ag7
as(I82
I12
tp4400
(lp4401
S'82_12.png'
p4402
aVreach the cell below the spade
p4403
a(I9
I1
tp4404
a(I9
I2
tp4405
ag93
as(I74
I16
tp4406
(lp4407
S'74_16.png'
p4408
aVone cell below star .
p4409
a(I1
I4
tp4410
a(I1
I4
tp4411
ag7
as(I79
I21
tp4412
(lp4413
S'79_21.png'
p4414
aVreach cell with the tree
p4415
a(g24
(g28
S'\t\x00\x00\x00\x00\x00\x00\x00'
p4416
tp4417
Rp4418
g24
(g28
S'\x02\x00\x00\x00\x00\x00\x00\x00'
p4419
tp4420
Rp4421
tp4422
a(I9
I2
tp4423
ag7
as(I77
I5
tp4424
(lp4425
S'77_5.png'
p4426
aVreach the horse below the circle and two left of the rock
p4427
a(I5
I5
tp4428
a(I5
I5
tp4429
ag7
as(I75
I29
tp4430
(lp4431
S'75_29.png'
p4432
aVreach the cell to the right of the tree and below the orange triangle
p4433
a(I1
I2
tp4434
a(I1
I4
tp4435
ag93
as(I76
I30
tp4436
(lp4437
S'76_30.png'
p4438
aVone cell below tree
p4439
a(I3
I1
tp4440
a(I2
I1
tp4441
ag93
as(I82
I10
tp4442
(lp4443
S'82_10.png'
p4444
aVreach the cell left of the triangle
p4445
a(I6
I4
tp4446
a(I6
I4
tp4447
ag7
as(I66
I4
tp4448
(lp4449
S'66_4.png'
p4450
aVreach cell that is above the heart
p4451
a(I5
I9
tp4452
a(I5
I9
tp4453
ag7
as(I67
I25
tp4454
(lp4455
S'67_25.png'
p4456
aVreach the diamond near the rock
p4457
a(I0
I4
tp4458
a(I0
I4
tp4459
ag7
as(I70
I6
tp4460
(lp4461
S'70_6.png'
p4462
aVblank space below rock and one space to the left .
p4463
a(I8
I2
tp4464
a(I8
I2
tp4465
ag7
as(I68
I18
tp4466
(lp4467
S'68_18.png'
p4468
aVreach the horse below the circle
p4469
a(I8
I5
tp4470
a(I8
I5
tp4471
ag7
as(I83
I26
tp4472
(lp4473
S'83_26.png'
p4474
aVreach the house to the left of the star .
p4475
a(I0
I4
tp4476
a(I0
I4
tp4477
ag7
as(I69
I19
tp4478
(lp4479
S'69_19.png'
p4480
aVreach heart one above and two to the right of the diamond
p4481
a(I6
I2
tp4482
a(I6
I2
tp4483
ag7
as(I84
I29
tp4484
(lp4485
S'84_29.png'
p4486
aVreach two cell from the left of heart and one below .
p4487
a(I9
I6
tp4488
a(I9
I6
tp4489
ag7
as(I80
I21
tp4490
(lp4491
S'80_21.png'
p4492
aVreach squarge to the right of the house that is one square below and to right of spade
p4493
a(I5
I5
tp4494
a(I5
I4
tp4495
ag93
as(I70
I24
tp4496
(lp4497
S'70_24.png'
p4498
aVmove to the rock that is one cell above and left of the heart
p4499
a(I5
I2
tp4500
a(I5
I2
tp4501
ag7
as(I83
I0
tp4502
(lp4503
S'83_0.png'
p4504
aVreach the heart
p4505
a(I3
I3
tp4506
a(I3
I3
tp4507
ag7
as(I81
I16
tp4508
(lp4509
S'81_16.png'
p4510
aVdiamond below rock
p4511
a(I5
I8
tp4512
a(I5
I8
tp4513
ag7
as(I71
I29
tp4514
(lp4515
S'71_29.png'
p4516
aVreach space 2 below star
p4517
a(I9
I1
tp4518
a(I9
I1
tp4519
ag7
as(I75
I38
tp4520
(lp4521
S'75_38.png'
p4522
aVreach tree below the triangle
p4523
a(I1
I3
tp4524
a(I1
I3
tp4525
ag7
as(I82
I23
tp4526
(lp4527
S'82_23.png'
p4528
aVreach the house that is between the diamond and the triangle
p4529
a(I7
I5
tp4530
a(I7
I5
tp4531
ag7
as(I76
I33
tp4532
(lp4533
S'76_33.png'
p4534
aVone cell to the right of rock and top of horse to the right
p4535
a(I4
I3
tp4536
a(I3
I2
tp4537
ag93
as(I77
I36
tp4538
(lp4539
S'77_36.png'
p4540
aVreach space one space above diamond .
p4541
a(I5
I6
tp4542
a(I5
I7
tp4543
ag93
as(I78
I27
tp4544
(lp4545
S'78_27.png'
p4546
aVreach cell to the bottom left of yellow star
p4547
a(I4
I5
tp4548
a(I4
I5
tp4549
ag7
as(I74
I27
tp4550
(lp4551
S'74_27.png'
p4552
aVreach square that has the star .
p4553
a(I0
I4
tp4554
a(I0
I4
tp4555
ag7
as(I79
I18
tp4556
(lp4557
S'79_18.png'
p4558
aVreach cell to diamond
p4559
a(I8
I1
tp4560
a(I8
I1
tp4561
ag7
as(I75
I18
tp4562
(lp4563
S'75_18.png'
p4564
aVmove to the cell with the horse in it one to the left of the tree .
p4565
ag3731
a(I1
I2
tp4566
ag7
as.