(dp0
(I31
I6
tp1
(lp2
S'31_6.png'
p3
aVgo to leftmost house .
p4
a(I8
I2
tp5
a(I8
I2
tp6
aS'correct'
p7
as(I200
I2
tp8
(lp9
S'200_2.png'
p10
aVgo to the space to the left of the top rock
p11
a(I1
I5
tp12
a(I1
I5
tp13
ag7
as(I43
I3
tp14
(lp15
S'43_3.png'
p16
aVreach cell underneath the rock closest to the bottom
p17
a(I7
I7
tp18
a(I7
I7
tp19
ag7
as(I117
I8
tp20
(lp21
S'117_8.png'
p22
aVgo one cell up from the bottommost tree
p23
a(I8
I7
tp24
a(I8
I7
tp25
ag7
as(I154
I2
tp26
(lp27
S'154_2.png'
p28
aVone cell to the right of the topmost tree
p29
a(I2
I5
tp30
a(I2
I5
tp31
ag7
as(I253
I3
tp32
(lp33
S'253_3.png'
p34
aVmove one square above the easternmost tree .
p35
a(I6
I6
tp36
a(I6
I6
tp37
ag7
as(I83
I9
tp38
(lp39
S'83_9.png'
p40
aVgo to the cell left to the topmost rock .
p41
a(I0
I5
tp42
a(I0
I5
tp43
ag7
as(I34
I8
tp44
(lp45
S'34_8.png'
p46
aVgo to square left of topmost tree
p47
a(I2
I3
tp48
a(I2
I3
tp49
ag7
as(I148
I0
tp50
(lp51
S'148_0.png'
p52
aVmove to the square to the right of the bottommost rock
p53
a(I6
I7
tp54
a(I6
I7
tp55
ag7
as(I120
I2
tp56
(lp57
S'120_2.png'
p58
aVcell with a horse left of a house .
p59
a(I2
I8
tp60
a(I2
I8
tp61
ag7
as(I247
I1
tp62
(lp63
S'247_1.png'
p64
aVreach cell to the up most eastern tree .
p65
a(I0
I1
tp66
a(I0
I1
tp67
ag7
as(I74
I2
tp68
(lp69
S'74_2.png'
p70
aVreach the topmost tree
p71
a(I1
I6
tp72
a(I1
I6
tp73
ag7
as(I139
I9
tp74
(lp75
S'139_9.png'
p76
aVgo to cell of the rock that is rightmost and above another rock
p77
a(I5
I2
tp78
a(I5
I2
tp79
ag7
as(I213
I2
tp80
(lp81
S'213_2.png'
p82
aVreach cell above easternmost house
p83
a(I8
I9
tp84
a(I8
I9
tp85
ag7
as(I142
I6
tp86
(lp87
S'142_6.png'
p88
aVcell to the right of the top most house
p89
a(I0
I2
tp90
a(I0
I2
tp91
ag7
as(I200
I9
tp92
(lp93
S'200_9.png'
p94
aVgo to the space above the top rock
p95
a(I0
I6
tp96
a(I0
I6
tp97
ag7
as(I68
I0
tp98
(lp99
S'68_0.png'
p100
aVgo to the topmost horse .
p101
a(I5
I7
tp102
a(I5
I7
tp103
ag7
as(I80
I3
tp104
(lp105
S'80_3.png'
p106
aVcell two above and two to the left of the only tree
p107
a(I4
I1
tp108
a(I4
I1
tp109
ag7
as(I207
I0
tp110
(lp111
S'207_0.png'
p112
aVplace the red box on the tree right of the rock
p113
a(I3
I6
tp114
a(I3
I6
tp115
ag7
as(I34
I3
tp116
(lp117
S'34_3.png'
p118
aVgo to topmost tree
p119
a(I2
I4
tp120
a(I2
I4
tp121
ag7
as(I219
I5
tp122
(lp123
S'219_5.png'
p124
aVcell is two to the right and one above the western most horse .
p125
a(I8
I2
tp126
a(I8
I2
tp127
ag7
as(I256
I9
tp128
(lp129
S'256_9.png'
p130
aVgo to the cell on top of the bottom most horse
p131
a(I8
I5
tp132
a(I8
I5
tp133
ag7
as(I59
I9
tp134
(lp135
S'59_9.png'
p136
aVreach cell one above the lowest rock
p137
a(I7
I4
tp138
a(I7
I4
tp139
ag7
as(I62
I6
tp140
(lp141
S'62_6.png'
p142
aVreach the cell with the southernmost house .
p143
a(I9
I9
tp144
a(I9
I9
tp145
ag7
as(I120
I9
tp146
(lp147
S'120_9.png'
p148
aVtop most horse cell .
p149
a(I2
I8
tp150
a(I2
I8
tp151
ag7
as(I210
I6
tp152
(lp153
S'210_6.png'
p154
aVone square above the bottom rock .
p155
a(I8
I3
tp156
a(I8
I3
tp157
ag7
as(I28
I1
tp158
(lp159
S'28_1.png'
p160
aVmove to topmost horse
p161
a(I0
I4
tp162
a(I0
I4
tp163
ag7
as(I142
I9
tp164
(lp165
S'142_9.png'
p166
aVtwo cells to the left of the bottom most tree .
p167
a(I9
I3
tp168
a(I9
I3
tp169
ag7
as(I127
I0
tp170
(lp171
S'127_0.png'
p172
aVgo to cell on the right of the eastern most rock
p173
a(I7
I9
tp174
a(I7
I9
tp175
ag7
as(I40
I4
tp176
(lp177
S'40_4.png'
p178
aVgo to the topmost rock
p179
a(I3
I6
tp180
a(I3
I6
tp181
ag7
as(I250
I0
tp182
(lp183
S'250_0.png'
p184
aVmove to the right one cell of the eastern most rock .
p185
a(I2
I9
tp186
a(I2
I9
tp187
ag7
as(I204
I4
tp188
(lp189
S'204_4.png'
p190
aVmove to one space below the left most house
p191
a(I2
I2
tp192
a(I4
I2
tp193
aS'wrong'
p194
as(I22
I7
tp195
(lp196
S'22_7.png'
p197
aVgo to the right of the topmost horse
p198
a(I0
I3
tp199
a(I0
I3
tp200
ag7
as(I207
I9
tp201
(lp202
S'207_9.png'
p203
aVplace the object under the rock that is on the top of the page
p204
a(I1
I1
tp205
a(I0
I1
tp206
ag194
as(I105
I6
tp207
(lp208
S'105_6.png'
p209
aVmove cell to the left of the far right house
p210
a(I3
I8
tp211
a(I9
I7
tp212
ag194
as(I256
I0
tp213
(lp214
S'256_0.png'
p215
aVgo to the topmost horse
p216
a(I3
I6
tp217
a(I3
I6
tp218
ag7
as(I241
I9
tp219
(lp220
S'241_9.png'
p221
aVone square below the topmost horse .
p222
a(I1
I8
tp223
a(I1
I8
tp224
ag7
as(I62
I9
tp225
(lp226
S'62_9.png'
p227
aVgo to the cell directly above the westernmost house .
p228
a(I5
I0
tp229
a(I5
I0
tp230
ag7
as(I13
I6
tp231
(lp232
S'13_6.png'
p233
aVgo to house
p234
a(I3
I9
tp235
a(I3
I9
tp236
ag7
as(I25
I3
tp237
(lp238
S'25_3.png'
p239
aVreach the cell to the westmost rock
p240
a(I4
I3
tp241
a(I6
I9
tp242
ag194
as(I210
I1
tp243
(lp244
S'210_1.png'
p245
aVone square above the top rock
p246
a(I5
I3
tp247
a(I5
I3
tp248
ag7
as(I139
I7
tp249
(lp250
S'139_7.png'
p251
aVgo to cell of house on bottom
p252
a(I8
I5
tp253
a(I8
I5
tp254
ag7
as(I127
I9
tp255
(lp256
S'127_9.png'
p257
aVgot to the cell next to the northern most tree
p258
a(I6
I6
tp259
a(I6
I6
tp260
ag7
as(I238
I4
tp261
(lp262
S'238_4.png'
p263
aVmove to the cell to the right of the topmost horse
p264
a(I1
I2
tp265
a(I1
I2
tp266
ag7
as(I65
I5
tp267
(lp268
S'65_5.png'
p269
aVon the topmost rock
p270
a(I3
I4
tp271
a(I3
I4
tp272
ag7
as(I19
I1
tp273
(lp274
S'19_1.png'
p275
aVgo to cell between the bottom two rocks .
p276
a(I4
I5
tp277
a(I4
I5
tp278
ag7
as(I204
I3
tp279
(lp280
S'204_3.png'
p281
aVmove to the right most horse
p282
a(I1
I7
tp283
a(I1
I7
tp284
ag7
as(I229
I5
tp285
(lp286
S'229_5.png'
p287
aVmove to the cell one block to the right of the easternmost house
p288
a(I5
I4
tp289
a(I5
I4
tp290
ag7
as(I256
I7
tp291
(lp292
S'256_7.png'
p293
aVreach the cell on top of the topmost horse
p294
a(I2
I6
tp295
a(I2
I6
tp296
ag7
as(I241
I2
tp297
(lp298
S'241_2.png'
p299
aVthe leftmost horse .
p300
a(I1
I3
tp301
a(I1
I3
tp302
ag7
as(I59
I7
tp303
(lp304
S'59_7.png'
p305
aVreach cell to the left of the highest house
p306
a(I0
I8
tp307
a(I0
I8
tp308
ag7
as(I84
I5
tp309
(lp310
S'84_5.png'
p311
aVone block to the left of the western most house
p312
a(I5
I0
tp313
a(I5
I0
tp314
ag7
as(I38
I9
tp315
(lp316
S'38_9.png'
p317
aVreach the square above the westernmost rock
p318
a(I7
I1
tp319
a(I7
I1
tp320
ag7
as(I223
I7
tp321
(lp322
S'223_7.png'
p323
aVgo the cell to the left of the most northern house
p324
a(I4
I8
tp325
a(I4
I8
tp326
ag7
as(I25
I4
tp327
(lp328
S'25_4.png'
p329
aVreach cell diagonal to the left of the west most house
p330
a(I7
I8
tp331
a(I7
I8
tp332
ag7
as(I136
I1
tp333
(lp334
S'136_1.png'
p335
aVmove to cell left of leftmost rock
p336
a(I1
I0
tp337
a(I1
I0
tp338
ag7
as(I235
I0
tp339
(lp340
S'235_0.png'
p341
aVgo to the cell below the bottommost house
p342
a(I9
I9
tp343
a(I9
I9
tp344
ag7
as(I78
I3
tp345
(lp346
S'78_3.png'
p347
aVgo east of the westernmost horse .
p348
a(I3
I2
tp349
a(I3
I2
tp350
ag7
as(I201
I1
tp351
(lp352
S'201_1.png'
p353
aVgo to the western most horse
p354
a(I0
I8
tp355
a(I7
I5
tp356
ag194
as(I19
I6
tp357
(lp358
S'19_6.png'
p359
aVgo to cell to the left of the middle rock .
p360
a(I4
I3
tp361
a(I4
I3
tp362
ag7
as(I44
I6
tp363
(lp364
S'44_6.png'
p365
aVgo to the house in the bottom lefthand corner
p366
a(I8
I1
tp367
a(I8
I1
tp368
ag7
as(I56
I1
tp369
(lp370
S'56_1.png'
p371
aVgo to the cell which is right of the horse .
p372
a(I0
I1
tp373
a(I0
I1
tp374
ag7
as(I10
I5
tp375
(lp376
S'10_5.png'
p377
aVgo to the square directly to the right of the highest row of horses on the left .
p378
a(I1
I3
tp379
a(I1
I3
tp380
ag7
as(I38
I0
tp381
(lp382
S'38_0.png'
p383
aVreach the square above the easternmost rock
p384
a(I3
I9
tp385
a(I3
I9
tp386
ag7
as(I149
I3
tp387
(lp388
S'149_3.png'
p389
aVgo to the cell to the right of the topmost house
p390
a(I1
I6
tp391
a(I1
I6
tp392
ag7
as(I136
I8
tp393
(lp394
S'136_8.png'
p395
aVmove to cell two below and one right of left most house .
p396
a(I7
I3
tp397
a(I7
I3
tp398
ag7
as(I121
I1
tp399
(lp400
S'121_1.png'
p401
aVgo two the middle tree within the line of three consecutive horizontal trees .
p402
a(I3
I6
tp403
a(I3
I6
tp404
ag7
as(I29
I9
tp405
(lp406
S'29_9.png'
p407
aVcell left of western most tree
p408
a(I1
I2
tp409
a(I1
I4
tp410
ag194
as(I16
I2
tp411
(lp412
S'16_2.png'
p413
aVgo to one cell above easternmost house .
p414
a(I1
I7
tp415
a(I1
I7
tp416
ag7
as(I143
I1
tp417
(lp418
S'143_1.png'
p419
aVthe highest horse
p420
a(I1
I1
tp421
a(I1
I1
tp422
ag7
as(I115
I3
tp423
(lp424
S'115_3.png'
p425
aVmove one to the left of the bottom house
p426
a(I9
I5
tp427
a(I9
I5
tp428
ag7
as(I226
I2
tp429
(lp430
S'226_2.png'
p431
aVgo to the cell above the easternmost house .
p432
a(I2
I9
tp433
a(I2
I9
tp434
ag7
as(I155
I2
tp435
(lp436
S'155_2.png'
p437
aVmove three cells east of the topmost horse
p438
a(I2
I3
tp439
a(I2
I3
tp440
ag7
as(I69
I3
tp441
(lp442
S'69_3.png'
p443
aVgo to cell right of westernmost horse .
p444
a(I6
I4
tp445
a(I6
I4
tp446
ag7
as(I56
I8
tp447
(lp448
S'56_8.png'
p449
aVgo to the cell left of the rightmost house
p450
a(I4
I6
tp451
a(I4
I6
tp452
ag7
as(I146
I9
tp453
(lp454
S'146_9.png'
p455
aVabove the left most tree
p456
a(I2
I1
tp457
a(I6
I6
tp458
ag194
as(I63
I1
tp459
(lp460
S'63_1.png'
p461
aVabove house 3
p462
a(I6
I8
tp463
a(I7
I8
tp464
ag194
as(I232
I3
tp465
(lp466
S'232_3.png'
p467
aVreach the cell below the bottommost rock .
p468
a(I7
I9
tp469
a(I7
I9
tp470
ag7
as(I75
I2
tp471
(lp472
S'75_2.png'
p473
aVgo to the cell above the eaternmost tree .
p474
a(I2
I8
tp475
a(I2
I8
tp476
ag7
as(I29
I2
tp477
(lp478
S'29_2.png'
p479
aVgo to right of left most tree
p480
a(I1
I4
tp481
a(I1
I4
tp482
ag7
as(I214
I6
tp483
(lp484
S'214_6.png'
p485
aVgo to the northern most rock .
p486
a(I7
I6
tp487
a(I7
I6
tp488
ag7
as(I115
I8
tp489
(lp490
S'115_8.png'
p491
aVmove to the topmost house
p492
a(I2
I1
tp493
a(I2
I1
tp494
ag7
as(I205
I7
tp495
(lp496
S'205_7.png'
p497
aVgo to the cell directly above the southernmost rock .
p498
a(I7
I4
tp499
a(I7
I4
tp500
ag7
as(I23
I0
tp501
(lp502
S'23_0.png'
p503
aVto get to the house
p504
a(I9
I9
tp505
a(I7
I7
tp506
ag194
as(I35
I5
tp507
(lp508
S'35_5.png'
p509
aVgo one cell to the right of the northmost tree
p510
a(I2
I7
tp511
a(I2
I7
tp512
ag7
as(I146
I0
tp513
(lp514
S'146_0.png'
p515
aVright of the eastern most rock
p516
a(I4
I9
tp517
a(I4
I9
tp518
ag7
as(I257
I3
tp519
(lp520
S'257_3.png'
p521
aVgo to cell that is right of northern most tree .
p522
a(I4
I6
tp523
a(I4
I6
tp524
ag7
as(I245
I1
tp525
(lp526
S'245_1.png'
p527
aVthe cell east of the topmost tree
p528
a(I0
I1
tp529
a(I0
I1
tp530
ag7
as(I100
I1
tp531
(lp532
S'100_1.png'
p533
aVreach the cell to the left of the topmost rock
p534
a(I0
I2
tp535
a(I0
I2
tp536
ag7
as(I140
I2
tp537
(lp538
S'140_2.png'
p539
aVgo to the cell above the rightmost house .
p540
a(I7
I7
tp541
a(I5
I5
tp542
ag194
as(I125
I7
tp543
(lp544
S'125_7.png'
p545
aVthe southernmost house
p546
a(I6
I4
tp547
a(I6
I4
tp548
ag7
as(I112
I4
tp549
(lp550
S'112_4.png'
p551
aVgo to the cell above and to the right of the house
p552
a(I4
I1
tp553
a(I4
I1
tp554
ag7
as(I239
I3
tp555
(lp556
S'239_3.png'
p557
aVone above the top house in the column with two houses
p558
a(I4
I6
tp559
a(I4
I6
tp560
ag7
as(I152
I5
tp561
(lp562
S'152_5.png'
p563
aVgo to one box below second most western horse
p564
a(I5
I1
tp565
a(I5
I1
tp566
ag7
as(I20
I4
tp567
(lp568
S'20_4.png'
p569
aVreach the cell between the two northern most horses .
p570
a(I5
I2
tp571
a(I5
I2
tp572
ag7
as(I205
I0
tp573
(lp574
S'205_0.png'
p575
aVgo to the horse cell directly below the easternmost rock .
p576
a(I4
I8
tp577
a(I4
I8
tp578
ag7
as(I134
I4
tp579
(lp580
S'134_4.png'
p581
aVreach cell directly above the rock
p582
a(I6
I6
tp583
a(I6
I6
tp584
ag7
as(I119
I5
tp585
(lp586
S'119_5.png'
p587
aVgo to the westmost tree .
p588
a(I3
I1
tp589
a(I3
I1
tp590
ag7
as(I230
I8
tp591
(lp592
S'230_8.png'
p593
aVmove to the square with the tree inside
p594
a(I4
I9
tp595
a(I6
I0
tp596
ag194
as(I159
I4
tp597
(lp598
S'159_4.png'
p599
aVmove to the square above the southernmost house .
p600
a(I8
I5
tp601
a(I8
I5
tp602
ag7
as(I217
I5
tp603
(lp604
S'217_5.png'
p605
aVgo to the square directly under the bottom-most rock
p606
a(I8
I0
tp607
a(I8
I0
tp608
ag7
as(I257
I4
tp609
(lp610
S'257_4.png'
p611
aVgo to cell immediately below northern most tree .
p612
a(I5
I5
tp613
a(I5
I5
tp614
ag7
as(I242
I7
tp615
(lp616
S'242_7.png'
p617
aVwestern most house
p618
a(I6
I1
tp619
a(I6
I1
tp620
ag7
as(I60
I2
tp621
(lp622
S'60_2.png'
p623
aVone cell to the right of the topmost house
p624
a(I1
I5
tp625
a(I1
I5
tp626
ag7
as(I85
I6
tp627
(lp628
S'85_6.png'
p629
aVgo to the top most rock
p630
a(I1
I5
tp631
a(I1
I5
tp632
ag7
as(I14
I2
tp633
(lp634
S'14_2.png'
p635
aVreach cell directly above the upper most rock
p636
a(I1
I8
tp637
a(I1
I8
tp638
ag7
as(I72
I5
tp639
(lp640
S'72_5.png'
p641
aVthe top tree
p642
a(I1
I4
tp643
a(I1
I4
tp644
ag7
as(I100
I8
tp645
(lp646
S'100_8.png'
p647
aVreach the cell that is to the right of the topmost house
p648
a(I4
I2
tp649
a(I4
I3
tp650
ag194
as(I211
I7
tp651
(lp652
S'211_7.png'
p653
aVmove to the bottom most tree
p654
a(I2
I7
tp655
a(I2
I7
tp656
ag7
as(I125
I0
tp657
(lp658
S'125_0.png'
p659
aVmove to the right one square and up one square from the southernmost house
p660
a(I5
I5
tp661
a(I5
I5
tp662
ag7
as(I236
I5
tp663
(lp664
S'236_5.png'
p665
aVgo to the northernmost house .
p666
a(I6
I8
tp667
a(I6
I8
tp668
ag7
as(I54
I4
tp669
(lp670
S'54_4.png'
p671
aVgo to the cell with the topmost stone
p672
a(I0
I4
tp673
a(I0
I4
tp674
ag7
as(I239
I8
tp675
(lp676
S'239_8.png'
p677
aVthe top rock in the column with two rocks
p678
a(I7
I5
tp679
a(I7
I5
tp680
ag7
as(I248
I0
tp681
(lp682
S'248_0.png'
p683
aVgo one below the bottom-most house .
p684
a(I6
I7
tp685
a(I6
I7
tp686
ag7
as(I17
I8
tp687
(lp688
S'17_8.png'
p689
aVthe cell above the topmost horse
p690
a(I1
I7
tp691
a(I1
I7
tp692
ag7
as(I202
I4
tp693
(lp694
S'202_4.png'
p695
aVgo to the right square of the bottom most house
p696
a(I9
I1
tp697
a(I4
I5
tp698
ag194
as(I20
I3
tp699
(lp700
S'20_3.png'
p701
aVreach the cell two spaces to the left of the southern most tree .
p702
a(I9
I2
tp703
a(I9
I2
tp704
ag7
as(I45
I5
tp705
(lp706
S'45_5.png'
p707
aVgo one cell to the left of the most southern house .
p708
a(I9
I4
tp709
a(I9
I4
tp710
ag7
as(I119
I2
tp711
(lp712
S'119_2.png'
p713
aVgo to the cell to the left of the topmost rock .
p714
a(I2
I7
tp715
a(I2
I7
tp716
ag7
as(I230
I3
tp717
(lp718
S'230_3.png'
p719
aVmove to the square above the easternmost house
p720
a(I3
I8
tp721
a(I3
I8
tp722
ag7
as(I57
I2
tp723
(lp724
S'57_2.png'
p725
aVgo to the top house
p726
a(I8
I6
tp727
a(I8
I6
tp728
ag7
as(I14
I5
tp729
(lp730
S'14_5.png'
p731
aVreach cell directly below the lowest most rock
p732
a(I9
I5
tp733
a(I9
I5
tp734
ag7
as(I39
I7
tp735
(lp736
S'39_7.png'
p737
aVmove one to the left of the bottommost house
p738
a(I5
I8
tp739
a(I5
I8
tp740
ag7
as(I208
I1
tp741
(lp742
S'208_1.png'
p743
aVmove to the left of the southern most house
p744
a(I8
I3
tp745
a(I8
I3
tp746
ag7
as(I122
I4
tp747
(lp748
S'122_4.png'
p749
aVcell is bottom most house
p750
a(I5
I3
tp751
a(I5
I3
tp752
ag7
as(I51
I0
tp753
(lp754
S'51_0.png'
p755
aVgo to the easternmost horse .
p756
a(I6
I9
tp757
a(I6
I9
tp758
ag7
as(I76
I8
tp759
(lp760
S'76_8.png'
p761
aVgo to the cell which is two left of the rock and below the tree .
p762
a(I7
I0
tp763
a(I8
I0
tp764
ag194
as(I248
I7
tp765
(lp766
S'248_7.png'
p767
aVgo to the top-most horse .
p768
a(I5
I8
tp769
a(I5
I8
tp770
ag7
as(I17
I1
tp771
(lp772
S'17_1.png'
p773
aVtwo cells above the eastmost house
p774
a(I2
I7
tp775
a(I3
I7
tp776
ag194
as(I116
I6
tp777
(lp778
S'116_6.png'
p779
aVimage is not shown
p780
as(I82
I5
tp781
(lp782
S'82_5.png'
p783
aVmove to the cell one right of the topmost tree .
p784
a(I0
I6
tp785
a(I2
I6
tp786
ag194
as(I11
I3
tp787
(lp788
S'11_3.png'
p789
aVmove to one square above the southernmost tree .
p790
a(I5
I1
tp791
a(I5
I1
tp792
ag7
as(I85
I8
tp793
(lp794
S'85_8.png'
p795
aVgo to the bottom tree
p796
a(I7
I4
tp797
a(I7
I4
tp798
ag7
as(I110
I0
tp799
(lp800
S'110_0.png'
p801
aVcell with bottom most horse
p802
a(I9
I6
tp803
a(I9
I6
tp804
ag7
as(I221
I3
tp805
(lp806
S'221_3.png'
p807
aVgo to the tree that is in the center
p808
a(I5
I5
tp809
a(I5
I5
tp810
ag7
as(I233
I0
tp811
(lp812
S'233_0.png'
p813
aVthe square to the right of the topmost house
p814
a(I1
I9
tp815
a(I1
I9
tp816
ag7
as(I51
I9
tp817
(lp818
S'51_9.png'
p819
aVgo to the cell directly above the easternmost horse .
p820
a(I5
I9
tp821
a(I5
I9
tp822
ag7
as(I76
I7
tp823
(lp824
S'76_7.png'
p825
aVgo to the cell containing the furthest right tree .
p826
a(I7
I6
tp827
a(I7
I6
tp828
ag7
as(I88
I2
tp829
(lp830
S'88_2.png'
p831
aVmove four to the left of the topmost tree
p832
a(I0
I2
tp833
a(I0
I2
tp834
ag7
as(I141
I8
tp835
(lp836
S'141_8.png'
p837
aVmove two squares to the left of the topmost rock
p838
a(I3
I4
tp839
a(I3
I4
tp840
ag7
as(I128
I3
tp841
(lp842
S'128_3.png'
p843
aVmove to the cell above the most western tree
p844
a(I8
I0
tp845
a(I8
I0
tp846
ag7
as(I227
I2
tp847
(lp848
S'227_2.png'
p849
aVgo to the top most tree
p850
a(I1
I2
tp851
a(I1
I2
tp852
ag7
as(I36
I0
tp853
(lp854
S'36_0.png'
p855
aVgo to the easternmost horse
p856
a(I3
I9
tp857
a(I3
I9
tp858
ag7
as(I258
I6
tp859
(lp860
S'258_6.png'
p861
aVthe cell to the right of the rock
p862
a(I5
I2
tp863
a(I5
I2
tp864
ag7
as(I48
I3
tp865
(lp866
S'48_3.png'
p867
aVmove to the topmost horse .
p868
a(I2
I4
tp869
a(I4
I2
tp870
ag194
as(I233
I9
tp871
(lp872
S'233_9.png'
p873
aVthe square above the bottommost horse
p874
a(I6
I4
tp875
a(I6
I4
tp876
ag7
as(I27
I9
tp877
(lp878
S'27_9.png'
p879
aVabove the southernmost rock
p880
a(I8
I3
tp881
a(I8
I3
tp882
ag7
as(I30
I6
tp883
(lp884
S'30_6.png'
p885
aVthe northernmost tree
p886
a(I1
I0
tp887
a(I1
I0
tp888
ag7
as(I88
I9
tp889
(lp890
S'88_9.png'
p891
aVmove up one and left two from the northernmost house
p892
a(I1
I2
tp893
a(I1
I2
tp894
ag7
as(I141
I1
tp895
(lp896
S'141_1.png'
p897
aVreach one square above the highest rock
p898
a(I2
I6
tp899
a(I2
I6
tp900
ag7
as(I113
I7
tp901
(lp902
S'113_7.png'
p903
aVmove to the southern most house
p904
a(I9
I6
tp905
a(I9
I6
tp906
ag7
as(I153
I6
tp907
(lp908
S'153_6.png'
p909
aVreach the farthest northwest tree
p910
a(I5
I3
tp911
a(I5
I3
tp912
ag7
as(I21
I7
tp913
(lp914
S'21_7.png'
p915
aVgo one cell to right of bottom house
p916
a(I5
I7
tp917
a(I5
I7
tp918
ag7
as(I135
I3
tp919
(lp920
S'135_3.png'
p921
aVgo to the square above the easternmost house .
p922
a(I2
I8
tp923
a(I2
I8
tp924
ag7
as(I107
I5
tp925
(lp926
S'107_5.png'
p927
aVgo to the cell of th etree above the bottom horse
p928
a(I6
I9
tp929
a(I6
I9
tp930
ag7
as(I144
I9
tp931
(lp932
S'144_9.png'
p933
aVone above the top rock
p934
a(I0
I4
tp935
a(I0
I4
tp936
ag7
as(I218
I0
tp937
(lp938
S'218_0.png'
p939
aVgo to easternmost horse
p940
a(I8
I9
tp941
a(I8
I9
tp942
ag7
as(I147
I4
tp943
(lp944
S'147_4.png'
p945
aVreach cell to the left of most bottom house .
p946
a(I7
I3
tp947
a(I7
I3
tp948
ag7
as(I258
I1
tp949
(lp950
S'258_1.png'
p951
aVthe cell above the top house
p952
a(I4
I3
tp953
a(I4
I3
tp954
ag7
as(I246
I7
tp955
(lp956
S'246_7.png'
p957
aVgo to westernmost house .
p958
a(I4
I2
tp959
a(I4
I2
tp960
ag7
as(I15
I5
tp961
(lp962
S'15_5.png'
p963
aVmove cell to the bottommost house
p964
a(I7
I6
tp965
a(I7
I6
tp966
ag7
as(I73
I6
tp967
(lp968
S'73_6.png'
p969
aVbox around the southernmost tree
p970
a(I8
I1
tp971
a(I8
I1
tp972
ag7
as(I209
I9
tp973
(lp974
S'209_9.png'
p975
aVmove to the square directly right of the east most horse
p976
a(I1
I1
tp977
a(I1
I1
tp978
ag7
as(I138
I7
tp979
(lp980
S'138_7.png'
p981
aVthe cell above the bottom rock
p982
a(I7
I3
tp983
a(I7
I3
tp984
ag7
as(I30
I9
tp985
(lp986
S'30_9.png'
p987
aVmove one cell down from the southernmost tree
p988
a(I9
I0
tp989
a(I9
I0
tp990
ag7
as(I237
I6
tp991
(lp992
S'237_6.png'
p993
aVgo to the bottommost house .
p994
a(I6
I5
tp995
a(I6
I5
tp996
ag7
as(I55
I3
tp997
(lp998
S'55_3.png'
p999
aVreach the square above the topmost tree .
p1000
a(I0
I6
tp1001
a(I0
I6
tp1002
ag7
as(I64
I9
tp1003
(lp1004
S'64_9.png'
p1005
aVtwo in front of the lowest horse
p1006
a(I5
I6
tp1007
a(I2
I9
tp1008
ag194
as(I249
I3
tp1009
(lp1010
S'249_3.png'
p1011
aVcell to the right of the top most tree
p1012
a(I4
I7
tp1013
a(I4
I7
tp1014
ag7
as(I67
I4
tp1015
(lp1016
S'67_4.png'
p1017
aVmove to the square below the westernmost tree .
p1018
a(I6
I1
tp1019
a(I6
I1
tp1020
ag7
as(I21
I0
tp1021
(lp1022
S'21_0.png'
p1023
aVgo to cell below southernmost house
p1024
a(I6
I6
tp1025
a(I6
I6
tp1026
ag7
as(I132
I5
tp1027
(lp1028
S'132_5.png'
p1029
aVgo to the lowest house
p1030
a(I9
I6
tp1031
a(I9
I6
tp1032
ag7
as(I206
I4
tp1033
(lp1034
S'206_4.png'
p1035
aVmove to the western most rock
p1036
a(I3
I2
tp1037
a(I3
I2
tp1038
ag7
as(I231
I4
tp1039
(lp1040
S'231_4.png'
p1041
aVclick to the left of the westernmost house
p1042
a(I7
I1
tp1043
a(I7
I1
tp1044
ag7
as(I33
I5
tp1045
(lp1046
S'33_5.png'
p1047
aVreach the middle house between two trees
p1048
a(I4
I5
tp1049
a(I4
I5
tp1050
ag7
as(I144
I0
tp1051
(lp1052
S'144_0.png'
p1053
aVthe rightmost horse
p1054
a(I2
I3
tp1055
a(I2
I3
tp1056
ag7
as(I243
I1
tp1057
(lp1058
S'243_1.png'
p1059
aVselect the cell with the topmost house .
p1060
a(I2
I6
tp1061
a(I2
I6
tp1062
ag7
as(I86
I2
tp1063
(lp1064
S'86_2.png'
p1065
aVgo one cell below the westernmost house
p1066
a(I4
I7
tp1067
a(I4
I7
tp1068
ag7
as(I15
I2
tp1069
(lp1070
S'15_2.png'
p1071
aVmove cell one square left of the bottommost house
p1072
a(I7
I5
tp1073
a(I7
I5
tp1074
ag7
as(I151
I9
tp1075
(lp1076
S'151_9.png'
p1077
aVcell above the eastenmost tree
p1078
a(I6
I9
tp1079
a(I6
I9
tp1080
ag7
as(I209
I2
tp1081
(lp1082
S'209_2.png'
p1083
aVmove to the most western tree
p1084
a(I2
I2
tp1085
a(I2
I2
tp1086
ag7
as(I27
I7
tp1087
(lp1088
S'27_7.png'
p1089
aVto the right of the southernmost tree
p1090
a(I9
I7
tp1091
a(I9
I7
tp1092
ag7
as(I52
I5
tp1093
(lp1094
S'52_5.png'
p1095
aVsquare below the topmost horse
p1096
a(I1
I0
tp1097
a(I1
I0
tp1098
ag7
as(I126
I4
tp1099
(lp1100
S'126_4.png'
p1101
aVgo to the rock above a house
p1102
a(I3
I5
tp1103
a(I3
I5
tp1104
ag7
as(I64
I0
tp1105
(lp1106
S'64_0.png'
p1107
aVreach the cell to the left of bottom tree
p1108
a(I4
I5
tp1109
a(I4
I5
tp1110
ag7
as(I249
I4
tp1111
(lp1112
S'249_4.png'
p1113
aVcell south of the left most rock
p1114
a(I7
I0
tp1115
a(I7
I0
tp1116
ag7
as(I18
I4
tp1117
(lp1118
S'18_4.png'
p1119
aVmove to the cell to the right of the bottom tree .
p1120
a(I9
I2
tp1121
a(I9
I2
tp1122
ag7
as(I203
I0
tp1123
(lp1124
S'203_0.png'
p1125
aVgo to the easternmost horse
p1126
a(I8
I8
tp1127
a(I8
I8
tp1128
ag7
as(I21
I9
tp1129
(lp1130
S'21_9.png'
p1131
aVgo to top house
p1132
a(I0
I4
tp1133
a(I0
I4
tp1134
ag7
as(I117
I5
tp1135
(lp1136
S'117_5.png'
p1137
aVgo one cell down from the leftmost horse
p1138
a(I4
I1
tp1139
a(I4
I1
tp1140
ag7
as(I46
I3
tp1141
(lp1142
S'46_3.png'
p1143
aVgo to the right to the cell next to the western most horse .
p1144
a(I7
I3
tp1145
a(I7
I3
tp1146
ag7
as(I157
I4
tp1147
(lp1148
S'157_4.png'
p1149
aVgo to the bottommost house .
p1150
a(I5
I4
tp1151
a(I5
I4
tp1152
ag7
as(I144
I7
tp1153
(lp1154
S'144_7.png'
p1155
aVof the two bottom rocks , one above the left rock .
p1156
a(I7
I4
tp1157
a(I7
I4
tp1158
ag7
as(I243
I6
tp1159
(lp1160
S'243_6.png'
p1161
aVgo to the cell one to the left of the leftmost house .
p1162
a(I8
I1
tp1163
a(I8
I1
tp1164
ag7
as(I12
I6
tp1165
(lp1166
S'12_6.png'
p1167
aVgo to the rightmost house .
p1168
a(I6
I9
tp1169
a(I6
I9
tp1170
ag7
as(I86
I5
tp1171
(lp1172
S'86_5.png'
p1173
aVgo one cell below the southernmost rock
p1174
a(I6
I7
tp1175
a(I6
I7
tp1176
ag7
as(I24
I1
tp1177
(lp1178
S'24_1.png'
p1179
aVmove one cell to the left of the rightmost horse .
p1180
a(I0
I6
tp1181
a(I0
I6
tp1182
ag7
as(I151
I6
tp1183
(lp1184
S'151_6.png'
p1185
aVcell to the left of the top house
p1186
a(I1
I3
tp1187
a(I1
I3
tp1188
ag7
as(I138
I9
tp1189
(lp1190
S'138_9.png'
p1191
aVthe cell to the right of the bottom rock
p1192
a(I8
I4
tp1193
a(I8
I4
tp1194
ag7
as(I123
I0
tp1195
(lp1196
S'123_0.png'
p1197
aVmove to the eastmost horse .
p1198
a(I5
I6
tp1199
a(I5
I6
tp1200
ag7
as(I77
I4
tp1201
(lp1202
S'77_4.png'
p1203
aVmove cell to the right of the bottom horse
p1204
a(I9
I4
tp1205
a(I9
I4
tp1206
ag7
as(I64
I7
tp1207
(lp1208
S'64_7.png'
p1209
aVreach the cell above the highest house
p1210
a(I0
I2
tp1211
a(I0
I2
tp1212
ag7
as(I89
I1
tp1213
(lp1214
S'89_1.png'
p1215
aVone square above the rightmost house .
p1216
a(I4
I8
tp1217
a(I5
I9
tp1218
ag194
as(I129
I0
tp1219
(lp1220
S'129_0.png'
p1221
aVreach the topmost horse .
p1222
a(I1
I9
tp1223
a(I1
I9
tp1224
ag7
as(I253
I9
tp1225
(lp1226
S'253_9.png'
p1227
aVclick on the southernmost tree .
p1228
a(I8
I2
tp1229
a(I8
I2
tp1230
ag7
as(I240
I2
tp1231
(lp1232
S'240_2.png'
p1233
aVgo to the square to the left of the right most rock .
p1234
a(I3
I6
tp1235
a(I3
I6
tp1236
ag7
as(I83
I3
tp1237
(lp1238
S'83_3.png'
p1239
aVgo to the cell to the right of topmost horse .
p1240
a(I2
I3
tp1241
a(I2
I3
tp1242
ag7
as(I24
I8
tp1243
(lp1244
S'24_8.png'
p1245
aVmove to the cell with the bottommost house .
p1246
a(I3
I3
tp1247
a(I4
I3
tp1248
ag194
as(I49
I0
tp1249
(lp1250
S'49_0.png'
p1251
aVreach the cell with the easternmost horse .
p1252
a(I7
I6
tp1253
a(I7
I6
tp1254
ag7
as(I31
I1
tp1255
(lp1256
S'31_1.png'
p1257
aVreach cell to the right of topmost and eastmost tree .
p1258
a(I2
I3
tp1259
a(I2
I3
tp1260
ag7
as(I200
I3
tp1261
(lp1262
S'200_3.png'
p1263
aVgo to the rightmost horse
p1264
a(I2
I0
tp1265
a(I3
I7
tp1266
ag194
as(I43
I2
tp1267
(lp1268
S'43_2.png'
p1269
aVgo to cell just under uppermost rock
p1270
a(I1
I8
tp1271
a(I1
I8
tp1272
ag7
as(I154
I3
tp1273
(lp1274
S'154_3.png'
p1275
aVone above the topmost house
p1276
a(I2
I6
tp1277
a(I2
I6
tp1278
ag7
as(I253
I2
tp1279
(lp1280
S'253_2.png'
p1281
aVclick on the northernmost tree .
p1282
a(I1
I3
tp1283
a(I1
I3
tp1284
ag7
as(I83
I8
tp1285
(lp1286
S'83_8.png'
p1287
aVgo to the cell left of the topmost horse .
p1288
a(I2
I1
tp1289
a(I2
I1
tp1290
ag7
as(I34
I9
tp1291
(lp1292
S'34_9.png'
p1293
aVgo to square above bottommost tree
p1294
a(I7
I4
tp1295
a(I7
I4
tp1296
ag7
as(I148
I1
tp1297
(lp1298
S'148_1.png'
p1299
aVmove to the square one spot above the bottommost rock
p1300
a(I5
I6
tp1301
a(I5
I6
tp1302
ag7
as(I120
I3
tp1303
(lp1304
S'120_3.png'
p1305
aVblank cell below the bottom rock .
p1306
a(I8
I4
tp1307
a(I8
I4
tp1308
ag7
as(I247
I0
tp1309
(lp1310
S'247_0.png'
p1311
aVreach cell to the left of the lowest tree
p1312
a(I5
I8
tp1313
a(I5
I8
tp1314
ag7
as(I74
I3
tp1315
(lp1316
S'74_3.png'
p1317
aVreach the cell 2 below and 3 to the right of the topmost house
p1318
a(I4
I9
tp1319
a(I4
I8
tp1320
ag194
as(I139
I8
tp1321
(lp1322
S'139_8.png'
p1323
aVgo to the cell with a horse
p1324
a(I8
I4
tp1325
a(I8
I4
tp1326
ag7
as(I213
I1
tp1327
(lp1328
S'213_1.png'
p1329
aVreach northernmost horse
p1330
a(I3
I6
tp1331
a(I3
I6
tp1332
ag7
as(I142
I7
tp1333
(lp1334
S'142_7.png'
p1335
aVcell to the left of the bottom most tree .
p1336
a(I9
I4
tp1337
a(I9
I5
tp1338
ag194
as(I250
I6
tp1339
(lp1340
S'250_6.png'
p1341
aVgo four cells south of the western most tree .
p1342
a(I9
I2
tp1343
a(I9
I2
tp1344
ag7
as(I68
I1
tp1345
(lp1346
S'68_1.png'
p1347
aVreach the square above the topmost house .
p1348
a(I5
I7
tp1349
a(I5
I7
tp1350
ag7
as(I80
I4
tp1351
(lp1352
S'80_4.png'
p1353
aVcell directly under the top most horse
p1354
a(I2
I1
tp1355
a(I2
I1
tp1356
ag7
as(I207
I3
tp1357
(lp1358
S'207_3.png'
p1359
aVplace the box in the square to the right of the eastern most tree
p1360
a(I1
I9
tp1361
a(I1
I8
tp1362
ag194
as(I34
I0
tp1363
(lp1364
S'34_0.png'
p1365
aVgo to the square right of the topmost tree
p1366
a(I2
I5
tp1367
a(I2
I5
tp1368
ag7
as(I219
I4
tp1369
(lp1370
S'219_4.png'
p1371
aVcell is one below the southern most rock .
p1372
a(I9
I3
tp1373
a(I9
I3
tp1374
ag7
as(I148
I8
tp1375
(lp1376
S'148_8.png'
p1377
aVmove to the square above the bottommost rock
p1378
a(I5
I6
tp1379
a(I5
I6
tp1380
ag7
as(I59
I8
tp1381
(lp1382
S'59_8.png'
p1383
aVreach cell two to the left of lowest house
p1384
a(I7
I4
tp1385
a(I7
I4
tp1386
ag7
as(I62
I7
tp1387
(lp1388
S'62_7.png'
p1389
aVreach the cell with the southernmost rock .
p1390
a(I9
I8
tp1391
a(I9
I8
tp1392
ag7
as(I210
I7
tp1393
(lp1394
S'210_7.png'
p1395
aVone square below the top rock .
p1396
a(I7
I3
tp1397
a(I7
I3
tp1398
ag7
as(I28
I2
tp1399
(lp1400
S'28_2.png'
p1401
aVmove to leftmost tree
p1402
a(I2
I2
tp1403
a(I2
I2
tp1404
ag7
as(I139
I1
tp1405
(lp1406
S'139_1.png'
p1407
aVmove all the way to left cell on edge next to leftmost rock
p1408
a(I5
I0
tp1409
a(I5
I0
tp1410
ag7
as(I127
I3
tp1411
(lp1412
S'127_3.png'
p1413
aVgo to the cell above the eastern most rock
p1414
a(I6
I8
tp1415
a(I7
I6
tp1416
ag194
as(I238
I2
tp1417
(lp1418
S'238_2.png'
p1419
aVmove to the cell above the bottom house
p1420
a(I8
I2
tp1421
a(I8
I2
tp1422
ag7
as(I40
I5
tp1423
(lp1424
S'40_5.png'
p1425
aVhouse and rock row one below rock
p1426
a(I6
I7
tp1427
a(I6
I7
tp1428
ag7
as(I65
I3
tp1429
(lp1430
S'65_3.png'
p1431
aVgo to the topmost horse
p1432
a(I2
I4
tp1433
a(I2
I4
tp1434
ag7
as(I250
I1
tp1435
(lp1436
S'250_1.png'
p1437
aVmove to the left one cell of the bottom most horse .
p1438
a(I9
I4
tp1439
a(I9
I4
tp1440
ag7
as(I68
I8
tp1441
(lp1442
S'68_8.png'
p1443
aVmove to the topmost house .
p1444
a(I6
I7
tp1445
a(I6
I7
tp1446
ag7
as(I204
I5
tp1447
(lp1448
S'204_5.png'
p1449
aVmove one space left of the left most horse
p1450
a(I3
I1
tp1451
a(I3
I1
tp1452
ag7
as(I22
I4
tp1453
(lp1454
S'22_4.png'
p1455
aVgo to the cell directly below the bottommost rock
p1456
a(I9
I2
tp1457
a(I9
I2
tp1458
ag7
as(I207
I8
tp1459
(lp1460
S'207_8.png'
p1461
aVplace the object above the rock that has a tree to its left
p1462
a(I5
I4
tp1463
a(I5
I4
tp1464
ag7
as(I105
I5
tp1465
(lp1466
S'105_5.png'
p1467
aVmove cell to the right house
p1468
a(I3
I9
tp1469
a(I3
I9
tp1470
ag7
as(I256
I1
tp1471
(lp1472
S'256_1.png'
p1473
aVreach cell to the left of the topmost horse
p1474
a(I3
I5
tp1475
a(I3
I5
tp1476
ag7
as(I241
I8
tp1477
(lp1478
S'241_8.png'
p1479
aVone square above the bottommost horse .
p1480
a(I5
I7
tp1481
a(I5
I7
tp1482
ag7
as(I59
I1
tp1483
(lp1484
S'59_1.png'
p1485
aVreach cell to the left of the righmost rock
p1486
a(I2
I8
tp1487
a(I2
I8
tp1488
ag7
as(I13
I5
tp1489
(lp1490
S'13_5.png'
p1491
aVgo to one below most western horse
p1492
a(I5
I2
tp1493
a(I5
I2
tp1494
ag7
as(I25
I2
tp1495
(lp1496
S'25_2.png'
p1497
aVreach the cell to the left of the upmost rock
p1498
a(I0
I6
tp1499
a(I0
I6
tp1500
ag7
as(I139
I6
tp1501
(lp1502
S'139_6.png'
p1503
aVgo to cell left of the leftmost house
p1504
a(I4
I0
tp1505
a(I4
I0
tp1506
ag7
as(I127
I8
tp1507
(lp1508
S'127_8.png'
p1509
aVgo the cell below rock that is next to the house
p1510
a(I8
I6
tp1511
a(I8
I6
tp1512
ag7
as(I238
I5
tp1513
(lp1514
S'238_5.png'
p1515
aVmove to the cell below the topmost horse
p1516
a(I2
I1
tp1517
a(I2
I1
tp1518
ag7
as(I65
I4
tp1519
(lp1520
S'65_4.png'
p1521
aVgp to the middle most rock
p1522
a(I4
I3
tp1523
a(I4
I2
tp1524
ag194
as(I250
I8
tp1525
(lp1526
S'250_8.png'
p1527
aVgo to the northern most rock .
p1528
a(I2
I8
tp1529
a(I2
I8
tp1530
ag7
as(I19
I0
tp1531
(lp1532
S'19_0.png'
p1533
aVgo to cell below most eastern house .
p1534
a(I4
I7
tp1535
a(I2
I5
tp1536
ag194
as(I44
I8
tp1537
(lp1538
S'44_8.png'
p1539
aVgo to the square to the right of the topmost house .
p1540
a(I3
I2
tp1541
a(I3
I2
tp1542
ag7
as(I229
I4
tp1543
(lp1544
S'229_4.png'
p1545
aVmove to the cell three blocks to the left of the southermost rock
p1546
a(I9
I1
tp1547
a(I9
I1
tp1548
ag7
as(I241
I1
tp1549
(lp1550
S'241_1.png'
p1551
aVproceed to the square left of the topmost horse .
p1552
a(I0
I7
tp1553
a(I1
I2
tp1554
ag194
as(I59
I6
tp1555
(lp1556
S'59_6.png'
p1557
aVreach cell two to the left and one down from the lowest tree
p1558
a(I7
I6
tp1559
a(I7
I6
tp1560
ag7
as(I84
I6
tp1561
(lp1562
S'84_6.png'
p1563
aVbottom western most house
p1564
a(I7
I2
tp1565
a(I7
I2
tp1566
ag7
as(I223
I6
tp1567
(lp1568
S'223_6.png'
p1569
aVgo the the southwesternmost house .
p1570
a(I9
I1
tp1571
a(I9
I1
tp1572
ag7
as(I136
I2
tp1573
(lp1574
S'136_2.png'
p1575
aVmove to cell below rightmost rock .
p1576
a(I5
I9
tp1577
a(I5
I9
tp1578
ag7
as(I235
I3
tp1579
(lp1580
S'235_3.png'
p1581
aVgo to the cell above the bottommost house
p1582
a(I7
I9
tp1583
a(I7
I9
tp1584
ag7
as(I78
I0
tp1585
(lp1586
S'78_0.png'
p1587
aVgo to the southernmost horse .
p1588
a(I7
I6
tp1589
a(I7
I6
tp1590
ag7
as(I201
I0
tp1591
(lp1592
S'201_0.png'
p1593
aVmove to horse two below the rock
p1594
a(I7
I9
tp1595
a(I7
I9
tp1596
ag7
as(I19
I9
tp1597
(lp1598
S'19_9.png'
p1599
aVgo to leftmost tree .
p1600
a(I3
I0
tp1601
a(I3
I0
tp1602
ag7
as(I226
I8
tp1603
(lp1604
S'226_8.png'
p1605
aVgo to the bottommost house .
p1606
a(I9
I1
tp1607
a(I9
I1
tp1608
ag7
as(I44
I7
tp1609
(lp1610
S'44_7.png'
p1611
aVgo to the square to the left of the easternmost house
p1612
a(I8
I6
tp1613
a(I8
I6
tp1614
ag7
as(I56
I2
tp1615
(lp1616
S'56_2.png'
p1617
aVgo to the cell at the bottom of last rock at the bottom .
p1618
a(I7
I8
tp1619
a(I7
I8
tp1620
ag7
as(I10
I2
tp1621
(lp1622
S'10_2.png'
p1623
aVgo to the horse furthest to the west .
p1624
a(I2
I0
tp1625
a(I2
I0
tp1626
ag7
as(I38
I1
tp1627
(lp1628
S'38_1.png'
p1629
aVreach the square one above and two right of the horse
p1630
a(I2
I7
tp1631
a(I2
I7
tp1632
ag7
as(I149
I2
tp1633
(lp1634
S'149_2.png'
p1635
aVgo to the topmost horse
p1636
a(I3
I4
tp1637
a(I3
I4
tp1638
ag7
as(I136
I9
tp1639
(lp1640
S'136_9.png'
p1641
aVmove to cell above bottommost rock .
p1642
a(I4
I4
tp1643
a(I4
I4
tp1644
ag7
as(I121
I0
tp1645
(lp1646
S'121_0.png'
p1647
aVgo one above the northmost tree .
p1648
a(I1
I3
tp1649
a(I1
I3
tp1650
ag7
as(I29
I8
tp1651
(lp1652
S'29_8.png'
p1653
aVcell in between right most tree and a rock
p1654
a(I1
I6
tp1655
a(I1
I6
tp1656
ag7
as(I16
I3
tp1657
(lp1658
S'16_3.png'
p1659
aVgo to one cell left of southernmost house .
p1660
a(I7
I0
tp1661
a(I7
I0
tp1662
ag7
as(I143
I0
tp1663
(lp1664
S'143_0.png'
p1665
aVthe highest horse to the right
p1666
a(I3
I8
tp1667
a(I3
I8
tp1668
ag7
as(I201
I9
tp1669
(lp1670
S'201_9.png'
p1671
aVgo to the horse that is on the top
p1672
a(I0
I8
tp1673
a(I0
I8
tp1674
ag7
as(I115
I2
tp1675
(lp1676
S'115_2.png'
p1677
aVmove one above the easternmost house
p1678
a(I2
I9
tp1679
a(I2
I9
tp1680
ag7
as(I226
I3
tp1681
(lp1682
S'226_3.png'
p1683
aVgo to the cell to the left of the leftmost house .
p1684
a(I9
I0
tp1685
a(I9
I0
tp1686
ag7
as(I155
I5
tp1687
(lp1688
S'155_5.png'
p1689
aVmove one cell east of the topmost horse
p1690
a(I2
I1
tp1691
a(I2
I3
tp1692
ag194
as(I69
I2
tp1693
(lp1694
S'69_2.png'
p1695
aVgo to topmost horse .
p1696
a(I0
I9
tp1697
a(I0
I9
tp1698
ag7
as(I56
I9
tp1699
(lp1700
S'56_9.png'
p1701
aVgo to the cell above the southernmost rock
p1702
a(I5
I8
tp1703
a(I5
I8
tp1704
ag7
as(I146
I6
tp1705
(lp1706
S'146_6.png'
p1707
aVthe left most tree
p1708
a(I3
I1
tp1709
a(I2
I3
tp1710
ag194
as(I257
I9
tp1711
(lp1712
S'257_9.png'
p1713
aVgo 2 cells below southern most house .
p1714
a(I5
I4
tp1715
a(I5
I4
tp1716
ag7
as(I245
I7
tp1717
(lp1718
S'245_7.png'
p1719
aVthe cell to the right of the southernmost tree
p1720
a(I6
I2
tp1721
a(I6
I2
tp1722
ag7
as(I63
I0
tp1723
(lp1724
S'63_0.png'
p1725
aVabove the topmost horse
p1726
a(I0
I1
tp1727
a(I0
I1
tp1728
ag7
as(I121
I9
tp1729
(lp1730
S'121_9.png'
p1731
aVgo to the southmost tree .
p1732
a(I7
I5
tp1733
a(I7
I5
tp1734
ag7
as(I232
I4
tp1735
(lp1736
S'232_4.png'
p1737
aVreach the cell below the easternmost tree .
p1738
a(I8
I6
tp1739
a(I8
I6
tp1740
ag7
as(I75
I5
tp1741
(lp1742
S'75_5.png'
p1743
aVgo to the westernmost tree .
p1744
a(I3
I1
tp1745
a(I3
I1
tp1746
ag7
as(I29
I1
tp1747
(lp1748
S'29_1.png'
p1749
aVcell left of top most rock
p1750
a(I0
I5
tp1751
a(I0
I5
tp1752
ag7
as(I140
I4
tp1753
(lp1754
S'140_4.png'
p1755
aVgo to the cell to the right of the westernmost horse .
p1756
a(I6
I1
tp1757
a(I6
I1
tp1758
ag7
as(I214
I7
tp1759
(lp1760
S'214_7.png'
p1761
aVgo to cell to the south of the northern most rock .
p1762
a(I8
I6
tp1763
a(I8
I6
tp1764
ag7
as(I143
I9
tp1765
(lp1766
S'143_9.png'
p1767
aVone square right of tree farthest left
p1768
a(I4
I1
tp1769
a(I4
I1
tp1770
ag7
as(I239
I5
tp1771
(lp1772
S'239_5.png'
p1773
aVone to the left of the westernmost house
p1774
a(I5
I4
tp1775
a(I5
I4
tp1776
ag7
as(I205
I6
tp1777
(lp1778
S'205_6.png'
p1779
aVgo to the cell directly to the left of the easternmost horse .
p1780
a(I4
I7
tp1781
a(I4
I7
tp1782
ag7
as(I23
I3
tp1783
(lp1784
S'23_3.png'
p1785
aVto get the horse to the rock
p1786
a(I3
I1
tp1787
a(I6
I4
tp1788
ag194
as(I134
I2
tp1789
(lp1790
S'134_2.png'
p1791
aVreach cell to the uppermost tree
p1792
a(I1
I3
tp1793
a(I1
I3
tp1794
ag7
as(I217
I3
tp1795
(lp1796
S'217_3.png'
p1797
aVgo to the square to the left of the top-most rock
p1798
a(I3
I4
tp1799
a(I3
I4
tp1800
ag7
as(I35
I4
tp1801
(lp1802
S'35_4.png'
p1803
aVgo to the southernmost horse
p1804
a(I4
I8
tp1805
a(I4
I8
tp1806
ag7
as(I146
I1
tp1807
(lp1808
S'146_1.png'
p1809
aVabove the eastern most rock
p1810
a(I3
I8
tp1811
a(I3
I8
tp1812
ag7
as(I257
I2
tp1813
(lp1814
S'257_2.png'
p1815
aVgo to cell 3 away from western most rock .
p1816
a(I6
I3
tp1817
a(I9
I6
tp1818
ag194
as(I60
I4
tp1819
(lp1820
S'60_4.png'
p1821
aVone cell above the topmost horse
p1822
a(I0
I3
tp1823
a(I0
I3
tp1824
ag7
as(I245
I0
tp1825
(lp1826
S'245_0.png'
p1827
aVthe rightmost horse
p1828
a(I5
I3
tp1829
a(I5
I3
tp1830
ag7
as(I63
I9
tp1831
(lp1832
S'63_9.png'
p1833
aVbelow house 3
p1834
a(I8
I8
tp1835
a(I8
I8
tp1836
ag7
as(I100
I2
tp1837
(lp1838
S'100_2.png'
p1839
aVreach the cell with the bottommost rock
p1840
a(I9
I4
tp1841
a(I9
I4
tp1842
ag7
as(I211
I1
tp1843
(lp1844
S'211_1.png'
p1845
aVmove 2 cell to the left of topmost rock
p1846
a(I0
I7
tp1847
a(I0
I7
tp1848
ag7
as(I140
I3
tp1849
(lp1850
S'140_3.png'
p1851
aVgo to the cell to the left of the rightmost house .
p1852
a(I8
I6
tp1853
a(I8
I6
tp1854
ag7
as(I125
I6
tp1855
(lp1856
S'125_6.png'
p1857
aVthe leftmost house
p1858
a(I3
I0
tp1859
a(I3
I0
tp1860
ag7
as(I54
I2
tp1861
(lp1862
S'54_2.png'
p1863
aVgo to the cell with the topmost horse
p1864
a(I0
I5
tp1865
a(I0
I5
tp1866
ag7
as(I112
I5
tp1867
(lp1868
S'112_5.png'
p1869
aVgo to the house
p1870
a(I5
I0
tp1871
a(I5
I0
tp1872
ag7
as(I239
I2
tp1873
(lp1874
S'239_2.png'
p1875
aVone to the left of the bottom most house .
p1876
a(I9
I5
tp1877
a(I9
I5
tp1878
ag7
as(I152
I6
tp1879
(lp1880
S'152_6.png'
p1881
aVgo to one box above most eastern horse
p1882
a(I6
I7
tp1883
a(I6
I7
tp1884
ag7
as(I20
I5
tp1885
(lp1886
S'20_5.png'
p1887
aVreach the cell on cell to the left of the western most house .
p1888
a(I6
I1
tp1889
a(I6
I1
tp1890
ag7
as(I134
I5
tp1891
(lp1892
S'134_5.png'
p1893
aVreach cell directly below the uppermost horse
p1894
a(I4
I3
tp1895
a(I4
I3
tp1896
ag7
as(I119
I4
tp1897
(lp1898
S'119_4.png'
p1899
aVgo to the cell below the eastmost tree .
p1900
a(I7
I9
tp1901
a(I7
I9
tp1902
ag7
as(I230
I9
tp1903
(lp1904
S'230_9.png'
p1905
aVmove to the square that is two to the left and two down from the northernmost horse
p1906
a(I6
I0
tp1907
a(I6
I0
tp1908
ag7
as(I159
I7
tp1909
(lp1910
S'159_7.png'
p1911
aVmove to the northernmost house .
p1912
a(I7
I4
tp1913
a(I7
I4
tp1914
ag7
as(I217
I4
tp1915
(lp1916
S'217_4.png'
p1917
aVgo to the rock closest to the left
p1918
a(I7
I0
tp1919
a(I7
I0
tp1920
ag7
as(I242
I4
tp1921
(lp1922
S'242_4.png'
p1923
aVright of the horse
p1924
a(I1
I9
tp1925
a(I1
I9
tp1926
ag7
as(I60
I3
tp1927
(lp1928
S'60_3.png'
p1929
aVone cell to the left of the eastmost tree
p1930
a(I0
I4
tp1931
a(I0
I4
tp1932
ag7
as(I245
I9
tp1933
(lp1934
S'245_9.png'
p1935
aVthe cell above the left most rock
p1936
a(I2
I1
tp1937
a(I2
I1
tp1938
ag7
as(I85
I5
tp1939
(lp1940
S'85_5.png'
p1941
aVgo to the square diagonally below the lowest tree
p1942
a(I8
I5
tp1943
a(I8
I5
tp1944
ag7
as(I14
I3
tp1945
(lp1946
S'14_3.png'
p1947
aVreach cell to the left of the upper most rock
p1948
a(I2
I7
tp1949
a(I2
I7
tp1950
ag7
as(I72
I6
tp1951
(lp1952
S'72_6.png'
p1953
aVone left of the bottom-left tree
p1954
a(I7
I6
tp1955
a(I7
I6
tp1956
ag7
as(I39
I9
tp1957
(lp1958
S'39_9.png'
p1959
aVmove to the bottom most rock
p1960
a(I7
I8
tp1961
a(I7
I8
tp1962
ag7
as(I100
I9
tp1963
(lp1964
S'100_9.png'
p1965
aVreach the cell that is to the right of the bottommost rock
p1966
a(I9
I5
tp1967
a(I9
I5
tp1968
ag7
as(I211
I6
tp1969
(lp1970
S'211_6.png'
p1971
aVmove 2 cell to the right of topmost horse
p1972
a(I0
I6
tp1973
a(I0
I6
tp1974
ag7
as(I236
I6
tp1975
(lp1976
S'236_6.png'
p1977
aVgo to the cell left of the northernmost house .
p1978
a(I6
I7
tp1979
a(I6
I7
tp1980
ag7
as(I54
I5
tp1981
(lp1982
S'54_5.png'
p1983
aVgo to the cell immediately to the right of the topmost horse
p1984
a(I0
I6
tp1985
a(I0
I6
tp1986
ag7
as(I248
I1
tp1987
(lp1988
S'248_1.png'
p1989
aVgo one below the bottom-most house .
p1990
a(I6
I7
tp1991
a(I6
I7
tp1992
ag7
as(I202
I5
tp1993
(lp1994
S'202_5.png'
p1995
aVgo to the right of the top right most house
p1996
a(I2
I5
tp1997
a(I2
I5
tp1998
ag7
as(I45
I4
tp1999
(lp2000
S'45_4.png'
p2001
aVgo one cell to the right of the most western horse .
p2002
a(I4
I1
tp2003
a(I9
I6
tp2004
ag194
as(I230
I0
tp2005
(lp2006
S'230_0.png'
p2007
aVmove to the square below the southernmost house
p2008
a(I9
I1
tp2009
a(I9
I1
tp2010
ag7
as(I57
I1
tp2011
(lp2012
S'57_1.png'
p2013
aVgo to the cell immediately to the left of the top rock
p2014
a(I3
I3
tp2015
a(I3
I3
tp2016
ag7
as(I221
I9
tp2017
(lp2018
S'221_9.png'
p2019
aVthe most southernest house
p2020
a(I8
I4
tp2021
a(I8
I4
tp2022
ag7
as(I39
I6
tp2023
(lp2024
S'39_6.png'
p2025
aVmove one to the right of the topmost horse
p2026
a(I0
I3
tp2027
a(I0
I3
tp2028
ag7
as(I208
I2
tp2029
(lp2030
S'208_2.png'
p2031
aVmove to the tree below the horse
p2032
a(I3
I3
tp2033
a(I3
I3
tp2034
ag7
as(I122
I5
tp2035
(lp2036
S'122_5.png'
p2037
aVcell is the topmost horse
p2038
a(I0
I8
tp2039
a(I8
I0
tp2040
ag194
as(I51
I3
tp2041
(lp2042
S'51_3.png'
p2043
aVgo to the westernmost horse .
p2044
a(I2
I2
tp2045
a(I2
I2
tp2046
ag7
as(I76
I9
tp2047
(lp2048
S'76_9.png'
p2049
aVgo to the cell which is immediately below the southwest tree .
p2050
a(I8
I0
tp2051
a(I8
I0
tp2052
ag7
as(I248
I8
tp2053
(lp2054
S'248_8.png'
p2055
aVgo to the top-most horse .
p2056
a(I5
I8
tp2057
a(I5
I8
tp2058
ag7
as(I17
I0
tp2059
(lp2060
S'17_0.png'
p2061
aVthe square of the topmost horse
p2062
a(I2
I7
tp2063
a(I2
I7
tp2064
ag7
as(I116
I7
tp2065
(lp2066
S'116_7.png'
p2067
aVimages are not coming in
p2068
as(I82
I2
tp2069
(lp2070
S'82_2.png'
p2071
aVmove to one cell above the eastern most house .
p2072
a(I5
I8
tp2073
a(I7
I6
tp2074
ag194
as(I11
I2
tp2075
(lp2076
S'11_2.png'
p2077
aVmove to the southernmost tree .
p2078
a(I6
I1
tp2079
a(I6
I1
tp2080
ag7
as(I110
I1
tp2081
(lp2082
S'110_1.png'
p2083
aVcell with northern most horse
p2084
a(I3
I3
tp2085
a(I3
I3
tp2086
ag7
as(I221
I2
tp2087
(lp2088
S'221_2.png'
p2089
aVthe cell that is right of the leftest rock
p2090
a(I1
I2
tp2091
a(I1
I4
tp2092
ag194
as(I233
I7
tp2093
(lp2094
S'233_7.png'
p2095
aVthe square above the topmost horse
p2096
a(I0
I9
tp2097
a(I0
I9
tp2098
ag7
as(I51
I8
tp2099
(lp2100
S'51_8.png'
p2101
aVgo to the cell directly above the westernmost rock .
p2102
a(I4
I3
tp2103
a(I4
I3
tp2104
ag7
as(I76
I0
tp2105
(lp2106
S'76_0.png'
p2107
aVgo to the cell immediately above the topmost tree .
p2108
a(I1
I0
tp2109
a(I1
I0
tp2110
ag7
as(I88
I3
tp2111
(lp2112
S'88_3.png'
p2113
aVmove one down from the southernmost rock
p2114
a(I8
I6
tp2115
a(I8
I6
tp2116
ag7
as(I141
I7
tp2117
(lp2118
S'141_7.png'
p2119
aVmove one square above the lowest rock
p2120
a(I6
I5
tp2121
a(I6
I5
tp2122
ag7
as(I128
I4
tp2123
(lp2124
S'128_4.png'
p2125
aVmove to the cell of the lowest house
p2126
a(I9
I2
tp2127
a(I9
I2
tp2128
ag7
as(I227
I5
tp2129
(lp2130
S'227_5.png'
p2131
aVgo to the cell to the right of the top most tree
p2132
a(I1
I3
tp2133
a(I1
I3
tp2134
ag7
as(I135
I5
tp2135
(lp2136
S'135_5.png'
p2137
aVgo to the bottom most tree .
p2138
a(I9
I7
tp2139
a(I9
I7
tp2140
ag7
as(I218
I6
tp2141
(lp2142
S'218_6.png'
p2143
aVreach cell one above easternmost horse
p2144
a(I7
I9
tp2145
a(I7
I9
tp2146
ag7
as(I36
I1
tp2147
(lp2148
S'36_1.png'
p2149
aVgo to the topmost horse
p2150
a(I0
I8
tp2151
a(I0
I8
tp2152
ag7
as(I110
I8
tp2153
(lp2154
S'110_8.png'
p2155
aVcell to the top of the left most tree
p2156
a(I2
I5
tp2157
a(I2
I5
tp2158
ag7
as(I258
I7
tp2159
(lp2160
S'258_7.png'
p2161
aVthe middlemost house
p2162
a(I7
I1
tp2163
a(I7
I1
tp2164
ag7
as(I48
I4
tp2165
(lp2166
S'48_4.png'
p2167
aVmove one cell to the right of the leftmost horse .
p2168
a(I6
I2
tp2169
a(I2
I7
tp2170
ag194
as(I233
I8
tp2171
(lp2172
S'233_8.png'
p2173
aVthe square to the right of the bottommost horse
p2174
a(I7
I5
tp2175
a(I7
I5
tp2176
ag7
as(I27
I8
tp2177
(lp2178
S'27_8.png'
p2179
aVthe horse in the corner
p2180
a(I9
I9
tp2181
a(I9
I9
tp2182
ag7
as(I30
I7
tp2183
(lp2184
S'30_7.png'
p2185
aVmove up two cells then left two cells from the southernmost rock
p2186
a(I6
I2
tp2187
a(I6
I2
tp2188
ag7
as(I141
I0
tp2189
(lp2190
S'141_0.png'
p2191
aVreach horse closest to the top right corner
p2192
a(I1
I9
tp2193
a(I1
I9
tp2194
ag7
as(I55
I5
tp2195
(lp2196
S'55_5.png'
p2197
aVreach the square to the right of the topmost tree
p2198
a(I1
I7
tp2199
a(I1
I5
tp2200
ag194
as(I113
I6
tp2201
(lp2202
S'113_6.png'
p2203
aVmove one cell left from the southern most house
p2204
a(I9
I5
tp2205
a(I9
I5
tp2206
ag7
as(I153
I5
tp2207
(lp2208
S'153_5.png'
p2209
aVreach the tree to the left of the eastmost horse
p2210
a(I5
I4
tp2211
a(I5
I4
tp2212
ag7
as(I21
I6
tp2213
(lp2214
S'21_6.png'
p2215
aVgo to left of top house
p2216
a(I0
I3
tp2217
a(I0
I3
tp2218
ag7
as(I206
I2
tp2219
(lp2220
S'206_2.png'
p2221
aVone cell about the topmost rock
p2222
a(I1
I7
tp2223
a(I1
I7
tp2224
ag7
as(I135
I2
tp2225
(lp2226
S'135_2.png'
p2227
aVgo to the square below the bottom most rock .
p2228
a(I4
I7
tp2229
a(I4
I7
tp2230
ag7
as(I33
I3
tp2231
(lp2232
S'33_3.png'
p2233
aVreach cell between a rock and house
p2234
a(I0
I8
tp2235
a(I0
I8
tp2236
ag7
as(I107
I4
tp2237
(lp2238
S'107_4.png'
p2239
aVgo to the cell of the bottom of the upper most horse
p2240
a(I2
I6
tp2241
a(I3
I5
tp2242
ag194
as(I218
I1
tp2243
(lp2244
S'218_1.png'
p2245
aVmove to westernmost horse
p2246
a(I4
I1
tp2247
a(I4
I1
tp2248
ag7
as(I36
I8
tp2249
(lp2250
S'36_8.png'
p2251
aVgo one above the bottommost tree
p2252
a(I6
I6
tp2253
a(I7
I6
tp2254
ag194
as(I147
I7
tp2255
(lp2256
S'147_7.png'
p2257
aVreach cell to the left of most southern house .
p2258
a(I7
I3
tp2259
a(I7
I3
tp2260
ag7
as(I246
I4
tp2261
(lp2262
S'246_4.png'
p2263
aVreach cell four below top left rock .
p2264
a(I4
I1
tp2265
a(I4
I1
tp2266
ag7
as(I86
I8
tp2267
(lp2268
S'86_8.png'
p2269
aVgo one cell below the southernmost rock
p2270
a(I6
I7
tp2271
a(I6
I7
tp2272
ag7
as(I15
I4
tp2273
(lp2274
S'15_4.png'
p2275
aVmove cell one square left of the westernmost house
p2276
a(I3
I0
tp2277
a(I3
I0
tp2278
ag7
as(I73
I5
tp2279
(lp2280
S'73_5.png'
p2281
aVbox one below the easternmost tree
p2282
a(I2
I8
tp2283
a(I8
I2
tp2284
ag194
as(I209
I8
tp2285
(lp2286
S'209_8.png'
p2287
aVmove to the square containing the top east most tree
p2288
a(I2
I9
tp2289
a(I1
I9
tp2290
ag194
as(I27
I1
tp2291
(lp2292
S'27_1.png'
p2293
aVone square above the easternmost rock
p2294
a(I2
I9
tp2295
a(I2
I9
tp2296
ag7
as(I138
I4
tp2297
(lp2298
S'138_4.png'
p2299
aVthe cell to the right of the top horse
p2300
a(I1
I3
tp2301
a(I1
I3
tp2302
ag7
as(I126
I2
tp2303
(lp2304
S'126_2.png'
p2305
aVgo one down from the right topmost rock
p2306
a(I2
I5
tp2307
a(I2
I4
tp2308
ag194
as(I237
I5
tp2309
(lp2310
S'237_5.png'
p2311
aVgo one left of the leftmost house .
p2312
a(I4
I0
tp2313
a(I4
I0
tp2314
ag7
as(I55
I2
tp2315
(lp2316
S'55_2.png'
p2317
aVreach the topmost tree .
p2318
a(I1
I6
tp2319
a(I1
I6
tp2320
ag7
as(I249
I2
tp2321
(lp2322
S'249_2.png'
p2323
aVcell to the left of the right most rock
p2324
a(I5
I5
tp2325
a(I5
I5
tp2326
ag7
as(I67
I7
tp2327
(lp2328
S'67_7.png'
p2329
aVmove to the house above the house closest to the bottom left corner .
p2330
a(I6
I2
tp2331
a(I6
I2
tp2332
ag7
as(I132
I6
tp2333
(lp2334
S'132_6.png'
p2335
aVgo left of the highest house
p2336
a(I3
I6
tp2337
a(I3
I6
tp2338
ag7
as(I206
I5
tp2339
(lp2340
S'206_5.png'
p2341
aVmove one cell below the furthest rock down
p2342
a(I8
I7
tp2343
a(I8
I7
tp2344
ag7
as(I231
I7
tp2345
(lp2346
S'231_7.png'
p2347
aVclick the westermost house
p2348
a(I7
I2
tp2349
a(I7
I2
tp2350
ag7
as(I33
I4
tp2351
(lp2352
S'33_4.png'
p2353
aVgo to cell one left one up to the middle house
p2354
a(I3
I4
tp2355
a(I3
I4
tp2356
ag7
as(I144
I1
tp2357
(lp2358
S'144_1.png'
p2359
aVone above the rightmost rock
p2360
a(I7
I5
tp2361
a(I7
I5
tp2362
ag7
as(I218
I8
tp2363
(lp2364
S'218_8.png'
p2365
aVmove to rock above easternmost tree
p2366
a(I2
I6
tp2367
a(I2
I6
tp2368
ag7
as(I243
I0
tp2369
(lp2370
S'243_0.png'
p2371
aVgo one cell up from the rock furthest to the right .
p2372
a(I1
I9
tp2373
a(I6
I8
tp2374
ag194
as(I12
I8
tp2375
(lp2376
S'12_8.png'
p2377
aVmove to the leftmost house .
p2378
a(I2
I1
tp2379
a(I2
I1
tp2380
ag7
as(I86
I3
tp2381
(lp2382
S'86_3.png'
p2383
aVgo one cell to the left of the northernmost rock
p2384
a(I2
I4
tp2385
a(I2
I4
tp2386
ag7
as(I151
I8
tp2387
(lp2388
S'151_8.png'
p2389
aVcell to the left of the tree below the horse
p2390
a(I3
I0
tp2391
a(I3
I0
tp2392
ag7
as(I209
I1
tp2393
(lp2394
S'209_1.png'
p2395
aVmove to the top most horse
p2396
a(I0
I7
tp2397
a(I0
I7
tp2398
ag7
as(I27
I6
tp2399
(lp2400
S'27_6.png'
p2401
aVto the left of the southernmost rock
p2402
a(I9
I2
tp2403
a(I9
I2
tp2404
ag7
as(I52
I6
tp2405
(lp2406
S'52_6.png'
p2407
aVsquare above the easternmost horse
p2408
a(I2
I7
tp2409
a(I2
I7
tp2410
ag7
as(I126
I5
tp2411
(lp2412
S'126_5.png'
p2413
aVgo four down from the horse
p2414
a(I4
I2
tp2415
a(I4
I2
tp2416
ag7
as(I64
I1
tp2417
(lp2418
S'64_1.png'
p2419
aVhighlight the highest tree
p2420
a(I0
I3
tp2421
a(I0
I3
tp2422
ag7
as(I18
I5
tp2423
(lp2424
S'18_5.png'
p2425
aVmove to the cell to the bottom of the rightmost tree .
p2426
a(I8
I6
tp2427
a(I8
I6
tp2428
ag7
as(I203
I3
tp2429
(lp2430
S'203_3.png'
p2431
aVgo to the western most horse one row beneath the top most tree
p2432
a(I3
I2
tp2433
a(I3
I2
tp2434
ag7
as(I21
I8
tp2435
(lp2436
S'21_8.png'
p2437
aVgo to cell to right of bottom house
p2438
a(I5
I7
tp2439
a(I9
I5
tp2440
ag194
as(I117
I4
tp2441
(lp2442
S'117_4.png'
p2443
aVgo one cell right from the bottommost tree
p2444
a(I9
I8
tp2445
a(I9
I8
tp2446
ag7
as(I46
I0
tp2447
(lp2448
S'46_0.png'
p2449
aVgo to bottom most horse .
p2450
a(I9
I9
tp2451
a(I9
I9
tp2452
ag7
as(I157
I3
tp2453
(lp2454
S'157_3.png'
p2455
aVgo to the topmost horse .
p2456
a(I3
I9
tp2457
a(I3
I9
tp2458
ag7
as(I243
I9
tp2459
(lp2460
S'243_9.png'
p2461
aVpick the cell one above the bottom rock .
p2462
a(I6
I8
tp2463
a(I6
I8
tp2464
ag7
as(I12
I7
tp2465
(lp2466
S'12_7.png'
p2467
aVmove 1 cell left of the rightmost house .
p2468
a(I6
I8
tp2469
a(I6
I8
tp2470
ag7
as(I24
I2
tp2471
(lp2472
S'24_2.png'
p2473
aVmove to the cell of the leftmost horse .
p2474
a(I1
I1
tp2475
a(I1
I1
tp2476
ag7
as(I151
I1
tp2477
(lp2478
S'151_1.png'
p2479
aVthe topmost tree
p2480
a(I0
I4
tp2481
a(I0
I4
tp2482
ag7
as(I123
I3
tp2483
(lp2484
S'123_3.png'
p2485
aVmove one to the right of the northwest most horse .
p2486
a(I5
I1
tp2487
a(I5
I1
tp2488
ag7
as(I77
I3
tp2489
(lp2490
S'77_3.png'
p2491
aVmove cell above the bottom horse
p2492
a(I8
I3
tp2493
a(I8
I3
tp2494
ag7
as(I89
I0
tp2495
(lp2496
S'89_0.png'
p2497
aVreach one square to the right of the topmost tree
p2498
a(I2
I1
tp2499
a(I2
I1
tp2500
ag7
as(I129
I7
tp2501
(lp2502
S'129_7.png'
p2503
aVreach one square above the bottom-most rock .
p2504
a(I6
I9
tp2505
a(I6
I9
tp2506
ag7
as(I253
I8
tp2507
(lp2508
S'253_8.png'
p2509
aVclick one square left of the northernmost tree .
p2510
a(I1
I2
tp2511
a(I1
I2
tp2512
ag7
as(I240
I3
tp2513
(lp2514
S'240_3.png'
p2515
aVgo to the top most horse .
p2516
a(I0
I3
tp2517
a(I0
I3
tp2518
ag7
as(I83
I2
tp2519
(lp2520
S'83_2.png'
p2521
aVgo to the westernmost tree .
p2522
a(I3
I0
tp2523
a(I3
I0
tp2524
ag7
as(I219
I9
tp2525
(lp2526
S'219_9.png'
p2527
aVcell is the northern most tree .
p2528
a(I6
I9
tp2529
a(I6
I9
tp2530
ag7
as(I24
I9
tp2531
(lp2532
S'24_9.png'
p2533
aVmove two cells right of the leftmost horse .
p2534
a(I1
I3
tp2535
a(I1
I3
tp2536
ag7
as(I49
I7
tp2537
(lp2538
S'49_7.png'
p2539
aVreach the cell one space above the lowest horse .
p2540
a(I8
I5
tp2541
a(I8
I5
tp2542
ag7
as(I213
I7
tp2543
(lp2544
S'213_7.png'
p2545
aVreach cell to the left of easternmost house
p2546
a(I9
I8
tp2547
a(I9
I8
tp2548
ag7
as(I31
I0
tp2549
(lp2550
S'31_0.png'
p2551
aVreach cell to the right of topmost and eastmost rock .
p2552
a(I3
I4
tp2553
a(I3
I4
tp2554
ag7
as(I89
I9
tp2555
(lp2556
S'89_9.png'
p2557
aVone square below the rightmost house .
p2558
a(I6
I8
tp2559
a(I6
I8
tp2560
ag7
as(I200
I4
tp2561
(lp2562
S'200_4.png'
p2563
aVgo to the space below the bottom rock
p2564
a(I5
I7
tp2565
a(I5
I7
tp2566
ag7
as(I43
I5
tp2567
(lp2568
S'43_5.png'
p2569
aVgo to the cell with the bottom most tree
p2570
a(I3
I8
tp2571
a(I3
I8
tp2572
ag7
as(I154
I0
tp2573
(lp2574
S'154_0.png'
p2575
aVone above the lowest rock
p2576
a(I8
I9
tp2577
a(I8
I9
tp2578
ag7
as(I253
I1
tp2579
(lp2580
S'253_1.png'
p2581
aVmove one square left to the easternmost tree
p2582
a(I7
I5
tp2583
a(I7
I5
tp2584
ag7
as(I207
I5
tp2585
(lp2586
S'207_5.png'
p2587
aVplace the object under the eastern most tree
p2588
a(I2
I8
tp2589
a(I2
I8
tp2590
ag7
as(I34
I6
tp2591
(lp2592
S'34_6.png'
p2593
aVgo to square left of bottom house
p2594
a(I9
I6
tp2595
a(I9
I6
tp2596
ag7
as(I148
I2
tp2597
(lp2598
S'148_2.png'
p2599
aVmove to the square to the left of the uppermost rock
p2600
a(I0
I0
tp2601
a(I0
I0
tp2602
ag7
as(I120
I4
tp2603
(lp2604
S'120_4.png'
p2605
aVcell above the right most house .
p2606
a(I1
I9
tp2607
a(I1
I9
tp2608
ag7
as(I247
I3
tp2609
(lp2610
S'247_3.png'
p2611
aVreach cell bellow the lowest tree .
p2612
a(I6
I9
tp2613
a(I6
I9
tp2614
ag7
as(I74
I0
tp2615
(lp2616
S'74_0.png'
p2617
aVreach the cell above the topmost tree
p2618
a(I0
I6
tp2619
a(I0
I6
tp2620
ag7
as(I28
I4
tp2621
(lp2622
S'28_4.png'
p2623
aVmove to rightmost house
p2624
a(I4
I8
tp2625
a(I4
I8
tp2626
ag7
as(I213
I0
tp2627
(lp2628
S'213_0.png'
p2629
aVreach eastermost horse
p2630
a(I7
I7
tp2631
a(I9
I9
tp2632
ag194
as(I31
I9
tp2633
(lp2634
S'31_9.png'
p2635
aVgo to cell above bottommost and leftmost tree .
p2636
a(I4
I0
tp2637
a(I4
I0
tp2638
ag7
as(I142
I4
tp2639
(lp2640
S'142_4.png'
p2641
aVcell of the western most house .
p2642
a(I9
I0
tp2643
a(I9
I0
tp2644
ag7
as(I127
I5
tp2645
(lp2646
S'127_5.png'
p2647
aVgo to the cell with the western most tree
p2648
a(I9
I2
tp2649
a(I9
I8
tp2650
ag194
as(I65
I9
tp2651
(lp2652
S'65_9.png'
p2653
aVgo to the topmost horse
p2654
a(I2
I4
tp2655
a(I2
I4
tp2656
ag7
as(I250
I7
tp2657
(lp2658
S'250_7.png'
p2659
aVgo one cell below the northern most rock .
p2660
a(I3
I8
tp2661
a(I3
I8
tp2662
ag7
as(I68
I2
tp2663
(lp2664
S'68_2.png'
p2665
aVreach the square on top of the rightmost house .
p2666
a(I7
I9
tp2667
a(I7
I9
tp2668
ag7
as(I22
I2
tp2669
(lp2670
S'22_2.png'
p2671
aVgo to the cell to the right of the topmost horse
p2672
a(I0
I3
tp2673
a(I0
I3
tp2674
ag7
as(I80
I5
tp2675
(lp2676
S'80_5.png'
p2677
aVthe most southern house
p2678
a(I6
I0
tp2679
a(I6
I0
tp2680
ag7
as(I207
I2
tp2681
(lp2682
S'207_2.png'
p2683
aVplace the box on the first box to the left of the rock in the first row
p2684
a(I0
I0
tp2685
a(I0
I0
tp2686
ag7
as(I105
I3
tp2687
(lp2688
S'105_3.png'
p2689
aVmove cell to the top of the furthest right house
p2690
a(I2
I9
tp2691
a(I2
I9
tp2692
ag7
as(I34
I1
tp2693
(lp2694
S'34_1.png'
p2695
aVgo to square above bottom house
p2696
a(I8
I7
tp2697
a(I8
I7
tp2698
ag7
as(I219
I7
tp2699
(lp2700
S'219_7.png'
p2701
aVcell is one below the northern most rock .
p2702
a(I8
I1
tp2703
a(I8
I1
tp2704
ag7
as(I148
I9
tp2705
(lp2706
S'148_9.png'
p2707
aVmove to the square just above the only house
p2708
a(I1
I1
tp2709
a(I1
I1
tp2710
ag7
as(I62
I4
tp2711
(lp2712
S'62_4.png'
p2713
aVreach the cell with the southernmost house .
p2714
a(I9
I9
tp2715
a(I9
I9
tp2716
ag7
as(I210
I4
tp2717
(lp2718
S'210_4.png'
p2719
aVthe left tree .
p2720
a(I7
I0
tp2721
a(I7
I0
tp2722
ag7
as(I28
I3
tp2723
(lp2724
S'28_3.png'
p2725
aVmove to cell at the right of bottom horse
p2726
a(I9
I2
tp2727
a(I9
I2
tp2728
ag7
as(I139
I0
tp2729
(lp2730
S'139_0.png'
p2731
aVmove to cell right of the leftmost house
p2732
a(I4
I2
tp2733
a(I4
I2
tp2734
ag7
as(I213
I9
tp2735
(lp2736
S'213_9.png'
p2737
aVreach cell above easternmost horse
p2738
a(I6
I7
tp2739
a(I6
I7
tp2740
ag7
as(I127
I2
tp2741
(lp2742
S'127_2.png'
p2743
aVgo to the cell of the western most house
p2744
a(I7
I5
tp2745
a(I7
I5
tp2746
ag7
as(I238
I3
tp2747
(lp2748
S'238_3.png'
p2749
aVgo to the bottom horse
p2750
a(I9
I1
tp2751
a(I9
I1
tp2752
ag7
as(I40
I6
tp2753
(lp2754
S'40_6.png'
p2755
aVone right of single rock row
p2756
a(I3
I7
tp2757
a(I3
I7
tp2758
ag7
as(I65
I2
tp2759
(lp2760
S'65_2.png'
p2761
aVleft of the topmost rock
p2762
a(I3
I3
tp2763
a(I3
I4
tp2764
ag194
as(I68
I9
tp2765
(lp2766
S'68_9.png'
p2767
aVmove to the square to the north of the northernmost horse .
p2768
a(I4
I7
tp2769
a(I5
I7
tp2770
ag194
as(I204
I6
tp2771
(lp2772
S'204_6.png'
p2773
aVmove one space right of the right most horse
p2774
a(I1
I8
tp2775
a(I1
I8
tp2776
ag7
as(I22
I5
tp2777
(lp2778
S'22_5.png'
p2779
aVgo to the topmost rock
p2780
a(I0
I4
tp2781
a(I0
I4
tp2782
ag7
as(I105
I4
tp2783
(lp2784
S'105_4.png'
p2785
aVmove cell to the left of the bottom house
p2786
a(I9
I7
tp2787
a(I8
I2
tp2788
ag194
as(I256
I2
tp2789
(lp2790
S'256_2.png'
p2791
aVgo diagonal to the topmost horse
p2792
a(I4
I5
tp2793
a(I4
I5
tp2794
ag7
as(I59
I0
tp2795
(lp2796
S'59_0.png'
p2797
aVreach cell below topmost house
p2798
a(I1
I9
tp2799
a(I1
I9
tp2800
ag7
as(I13
I4
tp2801
(lp2802
S'13_4.png'
p2803
aVgo to one right of bottom most tree
p2804
a(I7
I5
tp2805
a(I7
I5
tp2806
ag7
as(I25
I1
tp2807
(lp2808
S'25_1.png'
p2809
aVreach the cell 2 above the eastmost house
p2810
a(I6
I9
tp2811
a(I6
I9
tp2812
ag7
as(I250
I9
tp2813
(lp2814
S'250_9.png'
p2815
aVgo one cell north and five cells east of the house .
p2816
a(I3
I8
tp2817
a(I3
I8
tp2818
ag7
as(I19
I3
tp2819
(lp2820
S'19_3.png'
p2821
aVgo to leftmost rock .
p2822
a(I2
I0
tp2823
a(I2
I0
tp2824
ag7
as(I44
I9
tp2825
(lp2826
S'44_9.png'
p2827
aVgo to the square above the rightmost horse
p2828
a(I3
I7
tp2829
a(I7
I7
tp2830
ag194
as(I229
I3
tp2831
(lp2832
S'229_3.png'
p2833
aVmove to the cell two blocks to the left of the easternmost house
p2834
a(I5
I1
tp2835
a(I5
I1
tp2836
ag7
as(I241
I0
tp2837
(lp2838
S'241_0.png'
p2839
aVproceed to the topmost horse .
p2840
a(I0
I8
tp2841
a(I0
I8
tp2842
ag7
as(I84
I7
tp2843
(lp2844
S'84_7.png'
p2845
aVone block left of the eastern most house
p2846
a(I7
I6
tp2847
a(I5
I0
tp2848
ag194
as(I223
I1
tp2849
(lp2850
S'223_1.png'
p2851
aVgo to the cell of the northwestern most horse
p2852
a(I5
I6
tp2853
a(I5
I6
tp2854
ag7
as(I136
I3
tp2855
(lp2856
S'136_3.png'
p2857
aVmove to cell below downmost rock .
p2858
a(I6
I4
tp2859
a(I6
I4
tp2860
ag7
as(I235
I2
tp2861
(lp2862
S'235_2.png'
p2863
aVgo to the cell below the topmost house
p2864
a(I4
I2
tp2865
a(I4
I2
tp2866
ag7
as(I78
I1
tp2867
(lp2868
S'78_1.png'
p2869
aVgo to the northernmost horse .
p2870
a(I2
I3
tp2871
a(I2
I3
tp2872
ag7
as(I201
I7
tp2873
(lp2874
S'201_7.png'
p2875
aVgo one left to the house that is most east
p2876
a(I6
I6
tp2877
a(I6
I7
tp2878
ag194
as(I19
I8
tp2879
(lp2880
S'19_8.png'
p2881
aVgo to leftmost rock .
p2882
a(I2
I0
tp2883
a(I2
I0
tp2884
ag7
as(I226
I9
tp2885
(lp2886
S'226_9.png'
p2887
aVgo to the cell above the bottommost horse .
p2888
a(I5
I9
tp2889
a(I5
I9
tp2890
ag7
as(I44
I0
tp2891
(lp2892
S'44_0.png'
p2893
aVgo to the rightmost horse
p2894
a(I4
I7
tp2895
a(I4
I7
tp2896
ag7
as(I56
I3
tp2897
(lp2898
S'56_3.png'
p2899
aVgo to the cell at the bottom of the last rock at the bottom
p2900
a(I7
I8
tp2901
a(I7
I8
tp2902
ag7
as(I10
I3
tp2903
(lp2904
S'10_3.png'
p2905
aVgo to the top most row of horses , then to the horse on the left in that row .
p2906
a(I1
I2
tp2907
a(I1
I2
tp2908
ag7
as(I38
I6
tp2909
(lp2910
S'38_6.png'
p2911
aVreach the bottommost house
p2912
a(I9
I6
tp2913
a(I9
I6
tp2914
ag7
as(I149
I1
tp2915
(lp2916
S'149_1.png'
p2917
aVgo to the cell to the left of the topmost rock
p2918
a(I0
I7
tp2919
a(I0
I7
tp2920
ag7
as(I121
I7
tp2921
(lp2922
S'121_7.png'
p2923
aVgo to the rightmost tree .
p2924
a(I3
I7
tp2925
a(I3
I7
tp2926
ag7
as(I78
I8
tp2927
(lp2928
S'78_8.png'
p2929
aVgo west of the westernmost horse .
p2930
a(I3
I0
tp2931
a(I3
I0
tp2932
ag7
as(I29
I7
tp2933
(lp2934
S'29_7.png'
p2935
aVone above lower most rock
p2936
a(I7
I1
tp2937
a(I7
I1
tp2938
ag7
as(I16
I4
tp2939
(lp2940
S'16_4.png'
p2941
aVgo to cell of top tree of connected trees .
p2942
a(I8
I2
tp2943
a(I8
I2
tp2944
ag7
as(I143
I3
tp2945
(lp2946
S'143_3.png'
p2947
aVone square to the right of the highest horse
p2948
a(I1
I2
tp2949
a(I1
I2
tp2950
ag7
as(I201
I8
tp2951
(lp2952
S'201_8.png'
p2953
aVgo to the tree that is left of the horse on top
p2954
a(I0
I7
tp2955
a(I0
I7
tp2956
ag7
as(I112
I8
tp2957
(lp2958
S'112_8.png'
p2959
aVgo to the cell two spaces to the right of the house
p2960
a(I5
I2
tp2961
a(I5
I2
tp2962
ag7
as(I115
I5
tp2963
(lp2964
S'115_5.png'
p2965
aVmove one to the left of the western most house
p2966
a(I2
I0
tp2967
a(I2
I0
tp2968
ag7
as(I226
I0
tp2969
(lp2970
S'226_0.png'
p2971
aVgo to the bottommost horse .
p2972
a(I6
I9
tp2973
a(I6
I9
tp2974
ag7
as(I155
I4
tp2975
(lp2976
S'155_4.png'
p2977
aVmove one cell west of the bottommost horse
p2978
a(I8
I8
tp2979
a(I8
I8
tp2980
ag7
as(I69
I1
tp2981
(lp2982
S'69_1.png'
p2983
aVgo to cell above easternmost rock .
p2984
a(I8
I7
tp2985
a(I8
I7
tp2986
ag7
as(I23
I5
tp2987
(lp2988
S'23_5.png'
p2989
aVto get the horse to the rock
p2990
a(I3
I2
tp2991
a(I6
I4
tp2992
ag194
as(I134
I8
tp2993
(lp2994
S'134_8.png'
p2995
aVreach cell two to the left and four down from the uppermost tree
p2996
a(I5
I5
tp2997
a(I5
I1
tp2998
ag194
as(I146
I7
tp2999
(lp3000
S'146_7.png'
p3001
aVleft of the bottom most tree
p3002
a(I9
I2
tp3003
a(I2
I9
tp3004
ag194
as(I257
I8
tp3005
(lp3006
S'257_8.png'
p3007
aVgo to cell immediately below rock that is neither most east or west .
p3008
a(I7
I4
tp3009
a(I7
I4
tp3010
ag7
as(I245
I6
tp3011
(lp3012
S'245_6.png'
p3013
aVthe leftmost rock
p3014
a(I3
I1
tp3015
a(I3
I1
tp3016
ag7
as(I63
I3
tp3017
(lp3018
S'63_3.png'
p3019
aVtop left square ( has tree )
p3020
a(I0
I0
tp3021
a(I0
I0
tp3022
ag7
as(I121
I8
tp3023
(lp3024
S'121_8.png'
p3025
aVgo to the left of the leftmost tree .
p3026
a(I2
I2
tp3027
a(I2
I3
tp3028
ag194
as(I232
I5
tp3029
(lp3030
S'232_5.png'
p3031
aVreach the cell of the westernmost tree .
p3032
a(I2
I0
tp3033
a(I2
I0
tp3034
ag7
as(I75
I4
tp3035
(lp3036
S'75_4.png'
p3037
aVgo to the cell to the right of the topmost tree .
p3038
a(I0
I3
tp3039
a(I0
I3
tp3040
ag7
as(I100
I4
tp3041
(lp3042
S'100_4.png'
p3043
aVreach the cell that with the leftmost house
p3044
a(I9
I0
tp3045
a(I9
I0
tp3046
ag7
as(I29
I0
tp3047
(lp3048
S'29_0.png'
p3049
aVgo to house on top right corner
p3050
a(I0
I9
tp3051
a(I0
I9
tp3052
ag7
as(I140
I5
tp3053
(lp3054
S'140_5.png'
p3055
aVgo to the cell to the left of the leftmost house .
p3056
a(I7
I3
tp3057
a(I7
I3
tp3058
ag7
as(I214
I4
tp3059
(lp3060
S'214_4.png'
p3061
aVgo to cell to the west of the southern most rock .
p3062
a(I9
I8
tp3063
a(I9
I8
tp3064
ag7
as(I143
I8
tp3065
(lp3066
S'143_8.png'
p3067
aVsquare to the left of the highest horse
p3068
a(I1
I0
tp3069
a(I1
I0
tp3070
ag7
as(I54
I8
tp3071
(lp3072
S'54_8.png'
p3073
aVgo to the cell with the topmost house
p3074
a(I1
I5
tp3075
a(I1
I5
tp3076
ag7
as(I239
I4
tp3077
(lp3078
S'239_4.png'
p3079
aVone to the left of the bottom most house
p3080
a(I9
I5
tp3081
a(I9
I5
tp3082
ag7
as(I152
I0
tp3083
(lp3084
S'152_0.png'
p3085
aVgo to most eastward horse
p3086
a(I7
I7
tp3087
a(I7
I7
tp3088
ag7
as(I205
I5
tp3089
(lp3090
S'205_5.png'
p3091
aVgo to the cell of the easternmost rock .
p3092
a(I3
I8
tp3093
a(I3
I8
tp3094
ag7
as(I23
I2
tp3095
(lp3096
S'23_2.png'
p3097
aVto get the horse to the house
p3098
a(I4
I2
tp3099
a(I7
I8
tp3100
ag194
as(I134
I3
tp3101
(lp3102
S'134_3.png'
p3103
aVreach cell to the right of the westernmost horse
p3104
a(I4
I1
tp3105
a(I4
I1
tp3106
ag7
as(I217
I2
tp3107
(lp3108
S'217_2.png'
p3109
aVgo to the square directly above the top-most rock
p3110
a(I2
I5
tp3111
a(I2
I5
tp3112
ag7
as(I35
I7
tp3113
(lp3114
S'35_7.png'
p3115
aVto to the easternmost tree
p3116
a(I3
I8
tp3117
a(I3
I8
tp3118
ag7
as(I257
I1
tp3119
(lp3120
S'257_1.png'
p3121
aVgo to cell directly below most northern tree .
p3122
a(I5
I5
tp3123
a(I5
I5
tp3124
ag7
as(I60
I5
tp3125
(lp3126
S'60_5.png'
p3127
aVtwo cells above the westmost rock
p3128
a(I0
I5
tp3129
a(I0
I5
tp3130
ag7
as(I63
I8
tp3131
(lp3132
S'63_8.png'
p3133
aVabove tree three
p3134
a(I5
I5
tp3135
a(I5
I5
tp3136
ag7
as(I72
I0
tp3137
(lp3138
S'72_0.png'
p3139
aVone above the right-most rock
p3140
a(I4
I9
tp3141
a(I4
I9
tp3142
ag7
as(I100
I3
tp3143
(lp3144
S'100_3.png'
p3145
aVreach the cell above the topmost house
p3146
a(I3
I1
tp3147
a(I3
I1
tp3148
ag7
as(I211
I0
tp3149
(lp3150
S'211_0.png'
p3151
aVmove 2 cell to the right of topmost horse
p3152
a(I0
I7
tp3153
a(I0
I6
tp3154
ag194
as(I125
I5
tp3155
(lp3156
S'125_5.png'
p3157
aVmove one square left of the southernmost house
p3158
a(I6
I3
tp3159
a(I6
I3
tp3160
ag7
as(I236
I8
tp3161
(lp3162
S'236_8.png'
p3163
aVgo to the cell right of the northernmost house .
p3164
a(I6
I9
tp3165
a(I6
I9
tp3166
ag7
as(I54
I3
tp3167
(lp3168
S'54_3.png'
p3169
aVgo to the cell with the topmost horse
p3170
a(I0
I5
tp3171
a(I0
I5
tp3172
ag7
as(I112
I6
tp3173
(lp3174
S'112_6.png'
p3175
aVgo to the cell two spaces to the left of the rightmost horse
p3176
a(I1
I6
tp3177
a(I1
I6
tp3178
ag7
as(I152
I7
tp3179
(lp3180
S'152_7.png'
p3181
aVgo to one box left of southern tree
p3182
a(I8
I3
tp3183
a(I8
I3
tp3184
ag7
as(I20
I6
tp3185
(lp3186
S'20_6.png'
p3187
aVreach the house furthest south .
p3188
a(I9
I3
tp3189
a(I9
I3
tp3190
ag7
as(I119
I7
tp3191
(lp3192
S'119_7.png'
p3193
aVgo to the cell above the bottommost rock .
p3194
a(I8
I5
tp3195
a(I8
I5
tp3196
ag7
as(I159
I6
tp3197
(lp3198
S'159_6.png'
p3199
aVmove to the square above the easternmost horse .
p3200
a(I7
I3
tp3201
a(I7
I3
tp3202
ag7
as(I242
I5
tp3203
(lp3204
S'242_5.png'
p3205
aVlefy of the eft most house
p3206
a(I6
I0
tp3207
a(I6
I0
tp3208
ag7
as(I245
I8
tp3209
(lp3210
S'245_8.png'
p3211
aVthe cell below the leftmost horse
p3212
a(I4
I0
tp3213
a(I4
I0
tp3214
ag7
as(I85
I4
tp3215
(lp3216
S'85_4.png'
p3217
aVgo to the top most horse
p3218
a(I1
I9
tp3219
a(I1
I9
tp3220
ag7
as(I14
I0
tp3221
(lp3222
S'14_0.png'
p3223
aVreach cell right to the uppermost rock
p3224
a(I2
I9
tp3225
a(I2
I9
tp3226
ag7
as(I72
I7
tp3227
(lp3228
S'72_7.png'
p3229
aVone above the left-bottom rock
p3230
a(I4
I1
tp3231
a(I4
I1
tp3232
ag7
as(I39
I8
tp3233
(lp3234
S'39_8.png'
p3235
aVmove one down from the topmost horse
p3236
a(I1
I2
tp3237
a(I1
I2
tp3238
ag7
as(I211
I9
tp3239
(lp3240
S'211_9.png'
p3241
aVmove 1 cell down to the leftmost tree
p3242
a(I2
I6
tp3243
a(I2
I6
tp3244
ag7
as(I236
I7
tp3245
(lp3246
S'236_7.png'
p3247
aVgo to the cell right of the southernmost house .
p3248
a(I9
I7
tp3249
a(I9
I7
tp3250
ag7
as(I248
I2
tp3251
(lp3252
S'248_2.png'
p3253
aVgo one below the top-most house .
p3254
a(I2
I3
tp3255
a(I2
I3
tp3256
ag7
as(I202
I2
tp3257
(lp3258
S'202_2.png'
p3259
aVgo to the top right most house
p3260
a(I2
I4
tp3261
a(I2
I4
tp3262
ag7
as(I45
I3
tp3263
(lp3264
S'45_3.png'
p3265
aVgo one cell to the left of the most southern house .
p3266
a(I9
I4
tp3267
a(I9
I4
tp3268
ag7
as(I230
I1
tp3269
(lp3270
S'230_1.png'
p3271
aVmove to the square below the easternmost house
p3272
a(I5
I8
tp3273
a(I5
I8
tp3274
ag7
as(I57
I0
tp3275
(lp3276
S'57_0.png'
p3277
aVmove to the tree to the left of the rightmost tree
p3278
a(I6
I6
tp3279
a(I6
I6
tp3280
ag7
as(I82
I8
tp3281
(lp3282
S'82_8.png'
p3283
aVmove to the southernmost house .
p3284
a(I9
I7
tp3285
a(I9
I7
tp3286
ag7
as(I221
I8
tp3287
(lp3288
S'221_8.png'
p3289
aVthe cell is that is left of the most western house
p3290
a(I3
I1
tp3291
a(I3
I1
tp3292
ag7
as(I39
I1
tp3293
(lp3294
S'39_1.png'
p3295
aVmove one left of the center most horse
p3296
a(I3
I7
tp3297
a(I3
I7
tp3298
ag7
as(I208
I3
tp3299
(lp3300
S'208_3.png'
p3301
aVmove to the left of the western most house
p3302
a(I5
I2
tp3303
a(I5
I2
tp3304
ag7
as(I122
I2
tp3305
(lp3306
S'122_2.png'
p3307
aVcell is leftmost tree
p3308
a(I5
I0
tp3309
a(I5
I0
tp3310
ag7
as(I51
I2
tp3311
(lp3312
S'51_2.png'
p3313
aVgo to two cells to the right and one cell up of the westernmost horse .
p3314
a(I1
I4
tp3315
a(I1
I4
tp3316
ag7
as(I248
I9
tp3317
(lp3318
S'248_9.png'
p3319
aVgo one below the top-most tree .
p3320
a(I1
I2
tp3321
a(I1
I2
tp3322
ag7
as(I17
I7
tp3323
(lp3324
S'17_7.png'
p3325
aVthe cell containing the eastmost house
p3326
a(I5
I7
tp3327
a(I5
I7
tp3328
ag7
as(I116
I0
tp3329
(lp3330
S'116_0.png'
p3331
aVthe image did n't come in and i ca n't refresh the page
p3332
as(I57
I9
tp3333
(lp3334
S'57_9.png'
p3335
aVgo to the spot above the topmost rock
p3336
a(I2
I4
tp3337
a(I2
I4
tp3338
ag7
as(I82
I3
tp3339
(lp3340
S'82_3.png'
p3341
aVmove to the cell one left of the southernmost house .
p3342
a(I9
I6
tp3343
a(I9
I6
tp3344
ag7
as(I11
I5
tp3345
(lp3346
S'11_5.png'
p3347
aVmove to one square above the northernmost tree .
p3348
a(I1
I3
tp3349
a(I1
I3
tp3350
ag7
as(I107
I9
tp3351
(lp3352
S'107_9.png'
p3353
aVgo to the cell of the upper most tree
p3354
a(I0
I9
tp3355
a(I0
I9
tp3356
ag7
as(I110
I6
tp3357
(lp3358
S'110_6.png'
p3359
aVcell to the top of the bottom most horse
p3360
a(I8
I6
tp3361
a(I8
I6
tp3362
ag7
as(I221
I1
tp3363
(lp3364
S'221_1.png'
p3365
aVthe cell above the lowest rock
p3366
a(I2
I8
tp3367
a(I2
I8
tp3368
ag7
as(I233
I6
tp3369
(lp3370
S'233_6.png'
p3371
aVthe square to the right of the bottommost horse
p3372
a(I7
I5
tp3373
a(I7
I5
tp3374
ag7
as(I76
I1
tp3375
(lp3376
S'76_1.png'
p3377
aVgo to the cell immediately to the left of the easternmost tree .
p3378
a(I7
I5
tp3379
a(I7
I5
tp3380
ag7
as(I88
I4
tp3381
(lp3382
S'88_4.png'
p3383
aVmove three to the left of the topmost tree
p3384
a(I0
I3
tp3385
a(I0
I3
tp3386
ag7
as(I141
I6
tp3387
(lp3388
S'141_6.png'
p3389
aVmove one square below the topmost horse
p3390
a(I1
I4
tp3391
a(I1
I4
tp3392
ag7
as(I128
I5
tp3393
(lp3394
S'128_5.png'
p3395
aVmove to the cell north of the lowest lowest horse
p3396
a(I8
I1
tp3397
a(I8
I1
tp3398
ag7
as(I153
I3
tp3399
(lp3400
S'153_3.png'
p3401
aVreach the cell above the farthest east tree
p3402
a(I4
I9
tp3403
a(I4
I9
tp3404
ag7
as(I227
I4
tp3405
(lp3406
S'227_4.png'
p3407
aVgo to the cell below the top most tree
p3408
a(I2
I2
tp3409
a(I2
I2
tp3410
ag7
as(I135
I4
tp3411
(lp3412
S'135_4.png'
p3413
aVgo to the bottom most rock .
p3414
a(I3
I7
tp3415
a(I3
I7
tp3416
ag7
as(I33
I9
tp3417
(lp3418
S'33_9.png'
p3419
aVreach below the top right house
p3420
a(I1
I9
tp3421
a(I1
I9
tp3422
ag7
as(I218
I7
tp3423
(lp3424
S'218_7.png'
p3425
aVreach cell to the left of topmost tree
p3426
a(I0
I2
tp3427
a(I0
I2
tp3428
ag7
as(I36
I2
tp3429
(lp3430
S'36_2.png'
p3431
aVgo to the westernmost tree
p3432
a(I1
I5
tp3433
a(I1
I5
tp3434
ag7
as(I110
I9
tp3435
(lp3436
S'110_9.png'
p3437
aVcell to the left of the left most horse
p3438
a(I8
I1
tp3439
a(I8
I2
tp3440
ag194
as(I147
I1
tp3441
(lp3442
S'147_1.png'
p3443
aVreach cell to the left of the most eastern rock .
p3444
a(I0
I5
tp3445
a(I0
I5
tp3446
ag7
as(I258
I4
tp3447
(lp3448
S'258_4.png'
p3449
aVthe cell to the left of the middle house
p3450
a(I7
I0
tp3451
a(I7
I0
tp3452
ag7
as(I246
I2
tp3453
(lp3454
S'246_2.png'
p3455
aVreach one cell below westernmost tree .
p3456
a(I8
I2
tp3457
a(I8
I2
tp3458
ag7
as(I48
I5
tp3459
(lp3460
S'48_5.png'
p3461
aVmove one cell below the top horse .
p3462
a(I3
I4
tp3463
a(I4
I3
tp3464
ag194
as(I73
I3
tp3465
(lp3466
S'73_3.png'
p3467
aVbox one to the left of the easternmost tree
p3468
a(I1
I7
tp3469
a(I1
I7
tp3470
ag7
as(I30
I4
tp3471
(lp3472
S'30_4.png'
p3473
aVmove up one cell then left two cells from southernmost rock
p3474
a(I7
I2
tp3475
a(I7
I2
tp3476
ag7
as(I55
I4
tp3477
(lp3478
S'55_4.png'
p3479
aVreach the square below the topmost tree
p3480
a(I2
I6
tp3481
a(I2
I6
tp3482
ag7
as(I113
I5
tp3483
(lp3484
S'113_5.png'
p3485
aVmove one cell left from the bottom most house
p3486
a(I9
I5
tp3487
a(I9
I5
tp3488
ag7
as(I153
I4
tp3489
(lp3490
S'153_4.png'
p3491
aVreach the cell below the farthest east tree
p3492
a(I6
I9
tp3493
a(I6
I9
tp3494
ag7
as(I67
I1
tp3495
(lp3496
S'67_1.png'
p3497
aVmove to the square above the uppermost house .
p3498
a(I3
I6
tp3499
a(I3
I6
tp3500
ag7
as(I21
I5
tp3501
(lp3502
S'21_5.png'
p3503
aVgo to bottom house
p3504
a(I5
I6
tp3505
a(I5
I6
tp3506
ag7
as(I206
I3
tp3507
(lp3508
S'206_3.png'
p3509
aVone cell left of the topmost rock
p3510
a(I2
I6
tp3511
a(I2
I6
tp3512
ag7
as(I231
I9
tp3513
(lp3514
S'231_9.png'
p3515
aVclick below the northermost horse
p3516
a(I1
I5
tp3517
a(I5
I9
tp3518
ag194
as(I33
I2
tp3519
(lp3520
S'33_2.png'
p3521
aVgo to the left most house
p3522
a(I7
I0
tp3523
a(I7
I0
tp3524
ag7
as(I107
I7
tp3525
(lp3526
S'107_7.png'
p3527
aVgo to the cell at the top f the western most tree
p3528
a(I7
I3
tp3529
a(I7
I3
tp3530
ag7
as(I36
I9
tp3531
(lp3532
S'36_9.png'
p3533
aVgo to the topmost house
p3534
a(I0
I7
tp3535
a(I0
I7
tp3536
ag7
as(I147
I6
tp3537
(lp3538
S'147_6.png'
p3539
aVgo to most southern house .
p3540
a(I7
I4
tp3541
a(I7
I4
tp3542
ag7
as(I246
I5
tp3543
(lp3544
S'246_5.png'
p3545
aVgo to bottom most house .
p3546
a(I8
I3
tp3547
a(I8
I3
tp3548
ag7
as(I86
I9
tp3549
(lp3550
S'86_9.png'
p3551
aVgo to the cell of the northernmost rock
p3552
a(I2
I5
tp3553
a(I2
I5
tp3554
ag7
as(I15
I7
tp3555
(lp3556
S'15_7.png'
p3557
aVmove cell to the westernmost house
p3558
a(I3
I1
tp3559
a(I3
I1
tp3560
ag7
as(I73
I4
tp3561
(lp3562
S'73_4.png'
p3563
aVbox one below the southernmost rock
p3564
a(I8
I5
tp3565
a(I8
I5
tp3566
ag7
as(I27
I0
tp3567
(lp3568
S'27_0.png'
p3569
aVmove to the top easternmost horse
p3570
a(I8
I9
tp3571
a(I8
I9
tp3572
ag7
as(I138
I5
tp3573
(lp3574
S'138_5.png'
p3575
aVthe cell below the top horse
p3576
a(I2
I2
tp3577
a(I2
I2
tp3578
ag7
as(I126
I3
tp3579
(lp3580
S'126_3.png'
p3581
aVgo to the house below a rock
p3582
a(I4
I5
tp3583
a(I4
I5
tp3584
ag7
as(I237
I4
tp3585
(lp3586
S'237_4.png'
p3587
aVreach one right of the middle horse .
p3588
a(I3
I7
tp3589
a(I3
I7
tp3590
ag7
as(I249
I1
tp3591
(lp3592
S'249_1.png'
p3593
aVgo to the top most tree
p3594
a(I4
I6
tp3595
a(I4
I6
tp3596
ag7
as(I67
I6
tp3597
(lp3598
S'67_6.png'
p3599
aVmove to the square to the left of the uppermost house .
p3600
a(I4
I5
tp3601
a(I4
I5
tp3602
ag7
as(I132
I7
tp3603
(lp3604
S'132_7.png'
p3605
aVgo to the leftmost house
p3606
a(I8
I3
tp3607
a(I8
I3
tp3608
ag7
as(I157
I9
tp3609
(lp3610
S'157_9.png'
p3611
aVgo to the bottommost house .
p3612
a(I5
I4
tp3613
a(I5
I4
tp3614
ag7
as(I231
I6
tp3615
(lp3616
S'231_6.png'
p3617
aVclick to the right of the northmost rock
p3618
a(I0
I4
tp3619
a(I0
I4
tp3620
ag7
as(I144
I2
tp3621
(lp3622
S'144_2.png'
p3623
aVone left of the top rock
p3624
a(I1
I3
tp3625
a(I1
I3
tp3626
ag7
as(I218
I9
tp3627
(lp3628
S'218_9.png'
p3629
aVmove to cell one left of western most horse
p3630
a(I4
I0
tp3631
a(I4
I0
tp3632
ag7
as(I243
I3
tp3633
(lp3634
S'243_3.png'
p3635
aVchoose the cell one below the lowest rock .
p3636
a(I8
I8
tp3637
a(I8
I8
tp3638
ag7
as(I12
I9
tp3639
(lp3640
S'12_9.png'
p3641
aVmove 1 cell up from the rightmost horse .
p3642
a(I2
I9
tp3643
a(I2
I9
tp3644
ag7
as(I86
I0
tp3645
(lp3646
S'86_0.png'
p3647
aVgo one cell to the right of the southernmost rock
p3648
a(I5
I8
tp3649
a(I5
I8
tp3650
ag7
as(I209
I0
tp3651
(lp3652
S'209_0.png'
p3653
aVmove to the top most horse
p3654
a(I0
I7
tp3655
a(I0
I7
tp3656
ag7
as(I52
I7
tp3657
(lp3658
S'52_7.png'
p3659
aVsquare to the right left of the easternmost tree
p3660
a(I4
I1
tp3661
a(I0
I5
tp3662
ag194
as(I77
I9
tp3663
(lp3664
S'77_9.png'
p3665
aVtwo cells to the right of the tree
p3666
a(I5
I6
tp3667
a(I5
I6
tp3668
ag7
as(I64
I2
tp3669
(lp3670
S'64_2.png'
p3671
aVhighlight the east most rock
p3672
a(I3
I6
tp3673
a(I3
I6
tp3674
ag7
as(I18
I2
tp3675
(lp3676
S'18_2.png'
p3677
aVmove to the cell to the left of the topmost rock .
p3678
a(I3
I6
tp3679
a(I3
I6
tp3680
ag7
as(I203
I2
tp3681
(lp3682
S'203_2.png'
p3683
aVmove to the cell four left of the top most rock
p3684
a(I3
I2
tp3685
a(I3
I2
tp3686
ag7
as(I117
I3
tp3687
(lp3688
S'117_3.png'
p3689
aVgo right one cell of the leftmost horse
p3690
a(I3
I2
tp3691
a(I3
I2
tp3692
ag7
as(I46
I1
tp3693
(lp3694
S'46_1.png'
p3695
aVgo to horse that is on the same horizontal row as the house .
p3696
a(I6
I3
tp3697
a(I6
I3
tp3698
ag7
as(I157
I2
tp3699
(lp3700
S'157_2.png'
p3701
aVgo to the bottommost horse .
p3702
a(I6
I4
tp3703
a(I6
I4
tp3704
ag7
as(I243
I8
tp3705
(lp3706
S'243_8.png'
p3707
aVpick the cell to the left of the paired house and rock .
p3708
a(I2
I5
tp3709
a(I2
I5
tp3710
ag7
as(I12
I0
tp3711
(lp3712
S'12_0.png'
p3713
aVgo to the rightmost horse .
p3714
a(I3
I9
tp3715
a(I3
I9
tp3716
ag7
as(I24
I3
tp3717
(lp3718
S'24_3.png'
p3719
aVmove to the cell of the left horse in the top row .
p3720
a(I0
I3
tp3721
a(I0
I3
tp3722
ag7
as(I151
I0
tp3723
(lp3724
S'151_0.png'
p3725
aVthe cell to the right of the topmost tree
p3726
a(I0
I5
tp3727
a(I0
I5
tp3728
ag7
as(I123
I2
tp3729
(lp3730
S'123_2.png'
p3731
aVmove one square above the topmost house .
p3732
a(I1
I5
tp3733
a(I1
I5
tp3734
ag7
as(I77
I2
tp3735
(lp3736
S'77_2.png'
p3737
aVmove cell to the top of the easternmost house
p3738
a(I3
I7
tp3739
a(I3
I7
tp3740
ag7
as(I89
I7
tp3741
(lp3742
S'89_7.png'
p3743
aVone square to the right of the leftmost house .
p3744
a(I5
I1
tp3745
a(I5
I1
tp3746
ag7
as(I129
I6
tp3747
(lp3748
S'129_6.png'
p3749
aVreach one square below the topmost horse .
p3750
a(I2
I9
tp3751
a(I2
I9
tp3752
ag7
as(I154
I6
tp3753
(lp3754
S'154_6.png'
p3755
aVone left of the most west house
p3756
a(I4
I0
tp3757
a(I4
I0
tp3758
ag7
as(I46
I8
tp3759
(lp3760
S'46_8.png'
p3761
aVgo to the cell right of the uppermost tree .
p3762
a(I0
I2
tp3763
a(I0
I2
tp3764
ag7
as(I253
I7
tp3765
(lp3766
S'253_7.png'
p3767
aVclick on the easternmost tree .
p3768
a(I7
I6
tp3769
a(I7
I6
tp3770
ag7
as(I240
I4
tp3771
(lp3772
S'240_4.png'
p3773
aVgo to the square immediately below the southern most rock .
p3774
a(I9
I6
tp3775
a(I9
I6
tp3776
ag7
as(I80
I8
tp3777
(lp3778
S'80_8.png'
p3779
aVcell directly to the left of the only rock
p3780
a(I8
I3
tp3781
a(I8
I3
tp3782
ag7
as(I83
I5
tp3783
(lp3784
S'83_5.png'
p3785
aVgo to the cell below the topmost horse .
p3786
a(I3
I2
tp3787
a(I3
I2
tp3788
ag7
as(I219
I8
tp3789
(lp3790
S'219_8.png'
p3791
aVcell is one above and two to the right of the western most horse .
p3792
a(I8
I2
tp3793
a(I8
I2
tp3794
ag7
as(I148
I4
tp3795
(lp3796
S'148_4.png'
p3797
aVmove to the square just below the bottommost rock
p3798
a(I7
I6
tp3799
a(I7
I6
tp3800
ag7
as(I247
I5
tp3801
(lp3802
S'247_5.png'
p3803
aVreach cell to the westernmost tree .
p3804
a(I2
I0
tp3805
a(I2
I0
tp3806
ag7
as(I49
I6
tp3807
(lp3808
S'49_6.png'
p3809
aVreach the cell with the lowest house .
p3810
a(I9
I3
tp3811
a(I9
I3
tp3812
ag7
as(I74
I6
tp3813
(lp3814
S'74_6.png'
p3815
aVreach the cell above the bottom horse
p3816
a(I8
I5
tp3817
a(I8
I5
tp3818
ag7
as(I213
I6
tp3819
(lp3820
S'213_6.png'
p3821
aVreach easternmost house
p3822
a(I9
I9
tp3823
a(I9
I9
tp3824
ag7
as(I31
I3
tp3825
(lp3826
S'31_3.png'
p3827
aVreach cell between two topmost trees .
p3828
a(I2
I1
tp3829
a(I2
I1
tp3830
ag7
as(I89
I8
tp3831
(lp3832
S'89_8.png'
p3833
aVone square above the southernmost tree .
p3834
a(I6
I0
tp3835
a(I6
I0
tp3836
ag7
as(I142
I2
tp3837
(lp3838
S'142_2.png'
p3839
aVcell which contains bottom most tree
p3840
a(I9
I5
tp3841
a(I9
I5
tp3842
ag7
as(I200
I5
tp3843
(lp3844
S'200_5.png'
p3845
aVgo to the space to the right of the top horse
p3846
a(I2
I1
tp3847
a(I2
I1
tp3848
ag7
as(I43
I4
tp3849
(lp3850
S'43_4.png'
p3851
aVgo to the cell with the tree that is three blocks right of the right most horse
p3852
a(I2
I9
tp3853
a(I2
I9
tp3854
ag7
as(I154
I1
tp3855
(lp3856
S'154_1.png'
p3857
aVreach one left of the left most rock
p3858
a(I7
I4
tp3859
a(I7
I4
tp3860
ag7
as(I68
I4
tp3861
(lp3862
S'68_4.png'
p3863
aVmove to the square to the right of the westernmost horse .
p3864
a(I8
I3
tp3865
a(I8
I3
tp3866
ag7
as(I253
I0
tp3867
(lp3868
S'253_0.png'
p3869
aVmove one above the topmost tree
p3870
a(I0
I3
tp3871
a(I0
I3
tp3872
ag7
as(I22
I8
tp3873
(lp3874
S'22_8.png'
p3875
aVgo one cell below the topmost horse
p3876
a(I1
I2
tp3877
a(I1
I2
tp3878
ag7
as(I207
I4
tp3879
(lp3880
S'207_4.png'
p3881
aVplace the object on the left side of the tree under the rock that has a tree to the right of it
p3882
a(I7
I4
tp3883
a(I7
I4
tp3884
ag7
as(I34
I7
tp3885
(lp3886
S'34_7.png'
p3887
aVgo to square right of topmost house
p3888
a(I0
I4
tp3889
a(I0
I4
tp3890
ag7
as(I219
I1
tp3891
(lp3892
S'219_1.png'
p3893
aVcell is one to the right of the top most rock .
p3894
a(I7
I2
tp3895
a(I7
I2
tp3896
ag7
as(I148
I3
tp3897
(lp3898
S'148_3.png'
p3899
aVmove to the square to the right of the easternmost tree
p3900
a(I1
I8
tp3901
a(I1
I8
tp3902
ag7
as(I62
I2
tp3903
(lp3904
S'62_2.png'
p3905
aVreach the cell above the easternmost house .
p3906
a(I8
I9
tp3907
a(I9
I9
tp3908
ag194
as(I120
I5
tp3909
(lp3910
S'120_5.png'
p3911
aVcell to the left of the bottom most house .
p3912
a(I8
I7
tp3913
a(I8
I7
tp3914
ag7
as(I247
I2
tp3915
(lp3916
S'247_2.png'
p3917
aVreach cell below the easternmost house
p3918
a(I4
I9
tp3919
a(I4
I9
tp3920
ag7
as(I74
I1
tp3921
(lp3922
S'74_1.png'
p3923
aVreach the cell to the left of the top mosteastern tree
p3924
a(I5
I8
tp3925
a(I5
I8
tp3926
ag7
as(I28
I5
tp3927
(lp3928
S'28_5.png'
p3929
aVmove to cell under topmost horse
p3930
a(I1
I4
tp3931
a(I1
I4
tp3932
ag7
as(I31
I8
tp3933
(lp3934
S'31_8.png'
p3935
aVgo to topmost and rightmost tree .
p3936
a(I2
I2
tp3937
a(I2
I2
tp3938
ag7
as(I142
I5
tp3939
(lp3940
S'142_5.png'
p3941
aVcell to the left of most eastern house .
p3942
a(I8
I2
tp3943
a(I8
I2
tp3944
ag7
as(I127
I4
tp3945
(lp3946
S'127_4.png'
p3947
aVgo to the cell below the most southern rock
p3948
a(I9
I6
tp3949
a(I9
I6
tp3950
ag7
as(I40
I0
tp3951
(lp3952
S'40_0.png'
p3953
aVmove one right to the rightmost rock
p3954
a(I5
I9
tp3955
a(I5
I9
tp3956
ag7
as(I154
I8
tp3957
(lp3958
S'154_8.png'
p3959
aVselect the cell one left of the topmost house
p3960
a(I3
I5
tp3961
a(I3
I5
tp3962
ag7
as(I65
I8
tp3963
(lp3964
S'65_8.png'
p3965
aVabove the east most horse
p3966
a(I3
I6
tp3967
a(I4
I6
tp3968
ag194
as(I250
I4
tp3969
(lp3970
S'250_4.png'
p3971
aVgo to the bottom most rock .
p3972
a(I9
I3
tp3973
a(I2
I8
tp3974
ag194
as(I68
I3
tp3975
(lp3976
S'68_3.png'
p3977
aVreach the square to the right of the easternmost tree .
p3978
a(I8
I6
tp3979
a(I8
I6
tp3980
ag7
as(I204
I8
tp3981
(lp3982
S'204_8.png'
p3983
aVmove to the middle horse
p3984
a(I3
I3
tp3985
a(I3
I3
tp3986
ag7
as(I22
I3
tp3987
(lp3988
S'22_3.png'
p3989
aVgo to the topmost horse
p3990
a(I0
I2
tp3991
a(I0
I2
tp3992
ag7
as(I80
I6
tp3993
(lp3994
S'80_6.png'
p3995
aVcell directly to the left of the top most horse
p3996
a(I1
I0
tp3997
a(I1
I0
tp3998
ag7
as(I105
I2
tp3999
(lp4000
S'105_2.png'
p4001
aVmove cell to the right of the tree
p4002
a(I8
I4
tp4003
a(I8
I4
tp4004
ag7
as(I219
I6
tp4005
(lp4006
S'219_6.png'
p4007
aVcell is one to the left of the northern most tree .
p4008
a(I6
I8
tp4009
a(I6
I8
tp4010
ag7
as(I62
I5
tp4011
(lp4012
S'62_5.png'
p4013
aVreach the cell with the westernmost house .
p4014
a(I6
I0
tp4015
a(I6
I0
tp4016
ag7
as(I74
I8
tp4017
(lp4018
S'74_8.png'
p4019
aVreach the cell above the topmost horse
p4020
a(I1
I5
tp4021
a(I1
I5
tp4022
ag7
as(I210
I5
tp4023
(lp4024
S'210_5.png'
p4025
aVone square to the right of the bottom rock .
p4026
a(I9
I4
tp4027
a(I9
I4
tp4028
ag7
as(I139
I3
tp4029
(lp4030
S'139_3.png'
p4031
aVgo to cell below rock closest to bottom
p4032
a(I7
I2
tp4033
a(I6
I2
tp4034
ag194
as(I213
I8
tp4035
(lp4036
S'213_8.png'
p4037
aVreach westernmost house
p4038
a(I5
I1
tp4039
a(I5
I1
tp4040
ag7
as(I238
I0
tp4041
(lp4042
S'238_0.png'
p4043
aVgo to the rightmost horse
p4044
a(I6
I2
tp4045
a(I6
I2
tp4046
ag7
as(I40
I7
tp4047
(lp4048
S'40_7.png'
p4049
aVone left of double rocks
p4050
a(I5
I6
tp4051
a(I5
I6
tp4052
ag7
as(I65
I1
tp4053
(lp4054
S'65_1.png'
p4055
aVgo to the topmost horse
p4056
a(I2
I4
tp4057
a(I2
I4
tp4058
ag7
as(I204
I7
tp4059
(lp4060
S'204_7.png'
p4061
aVmove one space north of the right most horse
p4062
a(I0
I7
tp4063
a(I0
I7
tp4064
ag7
as(I256
I3
tp4065
(lp4066
S'256_3.png'
p4067
aVgo to the topmost horse
p4068
a(I3
I6
tp4069
a(I3
I6
tp4070
ag7
as(I59
I3
tp4071
(lp4072
S'59_3.png'
p4073
aVreach cell below lowest rock
p4074
a(I9
I4
tp4075
a(I9
I4
tp4076
ag7
as(I13
I3
tp4077
(lp4078
S'13_3.png'
p4079
aVgo to one right of most western horse
p4080
a(I4
I3
tp4081
a(I4
I3
tp4082
ag7
as(I25
I0
tp4083
(lp4084
S'25_0.png'
p4085
aVreach cell to the upmost rock to the right
p4086
a(I0
I9
tp4087
a(I0
I9
tp4088
ag7
as(I19
I2
tp4089
(lp4090
S'19_2.png'
p4091
aVgo to cell to left of eastern most house .
p4092
a(I3
I6
tp4093
a(I3
I7
tp4094
ag194
as(I155
I9
tp4095
(lp4096
S'155_9.png'
p4097
aVmove one cell north of the topmost rock
p4098
a(I1
I4
tp4099
a(I1
I4
tp4100
ag7
as(I229
I2
tp4101
(lp4102
S'229_2.png'
p4103
aVmove to the easternmost house
p4104
a(I5
I3
tp4105
a(I5
I3
tp4106
ag7
as(I241
I7
tp4107
(lp4108
S'241_7.png'
p4109
aVone square to the right of the leftmost horse .
p4110
a(I1
I4
tp4111
a(I1
I4
tp4112
ag7
as(I84
I0
tp4113
(lp4114
S'84_0.png'
p4115
aVreach the cell on the bottom most horse
p4116
a(I9
I8
tp4117
a(I9
I8
tp4118
ag7
as(I149
I7
tp4119
(lp4120
S'149_7.png'
p4121
aVgo to the bottommost house
p4122
a(I6
I4
tp4123
a(I6
I4
tp4124
ag7
as(I223
I0
tp4125
(lp4126
S'223_0.png'
p4127
aVgo to the cell of the easternmost horse
p4128
a(I5
I9
tp4129
a(I5
I9
tp4130
ag7
as(I25
I9
tp4131
(lp4132
S'25_9.png'
p4133
aVreach for the cell below the west most upmost rock
p4134
a(I1
I7
tp4135
a(I1
I8
tp4136
ag194
as(I136
I4
tp4137
(lp4138
S'136_4.png'
p4139
aVmove to cell below downmost rock .
p4140
a(I6
I4
tp4141
a(I6
I4
tp4142
ag7
as(I235
I5
tp4143
(lp4144
S'235_5.png'
p4145
aVgo to the bottommost house
p4146
a(I8
I9
tp4147
a(I8
I9
tp4148
ag7
as(I75
I9
tp4149
(lp4150
S'75_9.png'
p4151
aVmove to cell below the westernmost tree .
p4152
a(I4
I1
tp4153
a(I4
I1
tp4154
ag7
as(I78
I6
tp4155
(lp4156
S'78_6.png'
p4157
aVgo north of the southernmost horse .
p4158
a(I6
I6
tp4159
a(I6
I6
tp4160
ag7
as(I143
I5
tp4161
(lp4162
S'143_5.png'
p4163
aVone square south of the north most horse
p4164
a(I2
I1
tp4165
a(I2
I1
tp4166
ag7
as(I201
I6
tp4167
(lp4168
S'201_6.png'
p4169
aVgo to the house that is most left
p4170
a(I7
I5
tp4171
a(I7
I5
tp4172
ag7
as(I226
I6
tp4173
(lp4174
S'226_6.png'
p4175
aVgo to the bottommost house .
p4176
a(I9
I1
tp4177
a(I9
I1
tp4178
ag7
as(I44
I1
tp4179
(lp4180
S'44_1.png'
p4181
aVgo to the topmost horse
p4182
a(I0
I1
tp4183
a(I0
I1
tp4184
ag7
as(I69
I7
tp4185
(lp4186
S'69_7.png'
p4187
aVgo to cell above westernmost rock .
p4188
a(I6
I0
tp4189
a(I6
I0
tp4190
ag7
as(I56
I4
tp4191
(lp4192
S'56_4.png'
p4193
aVgo to the cell above the rightmost house .
p4194
a(I3
I7
tp4195
a(I3
I7
tp4196
ag7
as(I10
I0
tp4197
(lp4198
S'10_0.png'
p4199
aVgo to the topmost horse on the right hand side .
p4200
a(I1
I7
tp4201
a(I1
I7
tp4202
ag7
as(I38
I7
tp4203
(lp4204
S'38_7.png'
p4205
aVreach the square to the left of the easternmost house
p4206
a(I0
I8
tp4207
a(I4
I8
tp4208
ag194
as(I149
I0
tp4209
(lp4210
S'149_0.png'
p4211
aVmove to the rightmost horse
p4212
a(I5
I9
tp4213
a(I5
I9
tp4214
ag7
as(I223
I9
tp4215
(lp4216
S'223_9.png'
p4217
aVgo to the the top most house
p4218
a(I4
I9
tp4219
a(I4
I9
tp4220
ag7
as(I63
I5
tp4221
(lp4222
S'63_5.png'
p4223
aVhouse four
p4224
a(I9
I4
tp4225
a(I9
I4
tp4226
ag7
as(I121
I6
tp4227
(lp4228
S'121_6.png'
p4229
aVgo to the northmost tree .
p4230
a(I2
I3
tp4231
a(I2
I3
tp4232
ag7
as(I78
I9
tp4233
(lp4234
S'78_9.png'
p4235
aVgo south of the westernmost horse .
p4236
a(I4
I1
tp4237
a(I4
I1
tp4238
ag7
as(I29
I6
tp4239
(lp4240
S'29_6.png'
p4241
aVcell left of lower most tree
p4242
a(I8
I4
tp4243
a(I8
I4
tp4244
ag7
as(I214
I2
tp4245
(lp4246
S'214_2.png'
p4247
aVgo to the western most rock .
p4248
a(I8
I3
tp4249
a(I8
I3
tp4250
ag7
as(I16
I5
tp4251
(lp4252
S'16_5.png'
p4253
aVgo to one cell right of northernmost horse .
p4254
a(I2
I3
tp4255
a(I2
I3
tp4256
ag7
as(I143
I2
tp4257
(lp4258
S'143_2.png'
p4259
aVthe tree farthest to the left
p4260
a(I4
I0
tp4261
a(I4
I0
tp4262
ag7
as(I112
I9
tp4263
(lp4264
S'112_9.png'
p4265
aVgo to the cell above the bottommost horse
p4266
a(I6
I1
tp4267
a(I6
I1
tp4268
ag7
as(I115
I4
tp4269
(lp4270
S'115_4.png'
p4271
aVmove one to the right of the middle horse
p4272
a(I6
I2
tp4273
a(I6
I2
tp4274
ag7
as(I226
I1
tp4275
(lp4276
S'226_1.png'
p4277
aVgo to the topmost horse .
p4278
a(I0
I4
tp4279
a(I0
I4
tp4280
ag7
as(I155
I7
tp4281
(lp4282
S'155_7.png'
p4283
aVmove two cells south of the tree
p4284
a(I6
I8
tp4285
a(I6
I8
tp4286
ag7
as(I69
I0
tp4287
(lp4288
S'69_0.png'
p4289
aVgo to topmost horse .
p4290
a(I0
I9
tp4291
a(I0
I9
tp4292
ag7
as(I23
I4
tp4293
(lp4294
S'23_4.png'
p4295
aVget the horse to the rock
p4296
a(I8
I9
tp4297
a(I7
I5
tp4298
ag194
as(I134
I9
tp4299
(lp4300
S'134_9.png'
p4301
aVreach cell directly to the right of the uppermost tree
p4302
a(I1
I4
tp4303
a(I1
I4
tp4304
ag7
as(I35
I1
tp4305
(lp4306
S'35_1.png'
p4307
aVgo one cell above the southernmost tree
p4308
a(I3
I7
tp4309
a(I3
I7
tp4310
ag7
as(I146
I4
tp4311
(lp4312
S'146_4.png'
p4313
aVbelow the western most rock
p4314
a(I9
I0
tp4315
a(I8
I0
tp4316
ag194
as(I149
I9
tp4317
(lp4318
S'149_9.png'
p4319
aVgo to the cell above the bottommost rock
p4320
a(I8
I4
tp4321
a(I8
I4
tp4322
ag7
as(I245
I5
tp4323
(lp4324
S'245_5.png'
p4325
aVthe northernmost tree
p4326
a(I0
I0
tp4327
a(I0
I0
tp4328
ag7
as(I63
I2
tp4329
(lp4330
S'63_2.png'
p4331
aVto the left of house 4
p4332
a(I9
I3
tp4333
a(I9
I3
tp4334
ag7
as(I232
I6
tp4335
(lp4336
S'232_6.png'
p4337
aVone cell east and two cells south of the westernmost house .
p4338
a(I8
I1
tp4339
a(I8
I1
tp4340
ag7
as(I75
I7
tp4341
(lp4342
S'75_7.png'
p4343
aVgo to the cell to the right of the horse .
p4344
a(I0
I1
tp4345
a(I0
I1
tp4346
ag7
as(I100
I5
tp4347
(lp4348
S'100_5.png'
p4349
aVreach the cell with the westmost house
p4350
a(I9
I0
tp4351
a(I9
I0
tp4352
ag7
as(I140
I6
tp4353
(lp4354
S'140_6.png'
p4355
aVgo to the bottom-most house .
p4356
a(I8
I7
tp4357
a(I8
I7
tp4358
ag7
as(I214
I5
tp4359
(lp4360
S'214_5.png'
p4361
aVgo to cell to the left of the western most rock .
p4362
a(I8
I2
tp4363
a(I8
I2
tp4364
ag7
as(I54
I9
tp4365
(lp4366
S'54_9.png'
p4367
aVgo to the cell with the tree
p4368
a(I9
I9
tp4369
a(I9
I9
tp4370
ag7
as(I112
I0
tp4371
(lp4372
S'112_0.png'
p4373
aVgo to rightmost horse
p4374
a(I1
I8
tp4375
a(I1
I8
tp4376
ag7
as(I239
I7
tp4377
(lp4378
S'239_7.png'
p4379
aVthe westernmost house
p4380
a(I5
I5
tp4381
a(I5
I5
tp4382
ag7
as(I152
I1
tp4383
(lp4384
S'152_1.png'
p4385
aVgo to second most western horse .
p4386
a(I4
I1
tp4387
a(I4
I1
tp4388
ag7
as(I69
I9
tp4389
(lp4390
S'69_9.png'
p4391
aVcell below southernmost tree .
p4392
a(I6
I2
tp4393
a(I6
I2
tp4394
ag7
as(I205
I4
tp4395
(lp4396
S'205_4.png'
p4397
aVgo to the cell directly below the southernmost rock .
p4398
a(I9
I4
tp4399
a(I9
I4
tp4400
ag7
as(I134
I0
tp4401
(lp4402
S'134_0.png'
p4403
aVreach cell to the bottommost horse
p4404
a(I9
I4
tp4405
a(I9
I4
tp4406
ag7
as(I119
I9
tp4407
(lp4408
S'119_9.png'
p4409
aVgo to the cell above the topmost rock .
p4410
a(I1
I8
tp4411
a(I1
I8
tp4412
ag7
as(I217
I1
tp4413
(lp4414
S'217_1.png'
p4415
aVgo to the square to the right of the bottom-most rock
p4416
a(I7
I1
tp4417
a(I7
I1
tp4418
ag7
as(I35
I6
tp4419
(lp4420
S'35_6.png'
p4421
aVgo to the northmost tree
p4422
a(I2
I6
tp4423
a(I2
I6
tp4424
ag7
as(I257
I0
tp4425
(lp4426
S'257_0.png'
p4427
aVgo to the cell to the right of eastern-most rock .
p4428
a(I6
I6
tp4429
a(I6
I6
tp4430
ag7
as(I60
I6
tp4431
(lp4432
S'60_6.png'
p4433
aVone cell left and one cell above the topmost horse
p4434
a(I0
I2
tp4435
a(I1
I2
tp4436
ag194
as(I72
I1
tp4437
(lp4438
S'72_1.png'
p4439
aVfirst cell ( upper left )
p4440
a(I0
I0
tp4441
a(I0
I0
tp4442
ag7
as(I211
I3
tp4443
(lp4444
S'211_3.png'
p4445
aVmove to the cell with the eastern most tree
p4446
a(I0
I8
tp4447
a(I0
I8
tp4448
ag7
as(I125
I4
tp4449
(lp4450
S'125_4.png'
p4451
aVmove one square above the rightmost house
p4452
a(I4
I5
tp4453
a(I4
I5
tp4454
ag7
as(I236
I9
tp4455
(lp4456
S'236_9.png'
p4457
aVgo to the westernmost house .
p4458
a(I7
I2
tp4459
a(I7
I2
tp4460
ag7
as(I54
I0
tp4461
(lp4462
S'54_0.png'
p4463
aVmove to the cell with the bottommost horse
p4464
a(I8
I9
tp4465
a(I8
I9
tp4466
ag7
as(I112
I7
tp4467
(lp4468
S'112_7.png'
p4469
aVgo to the cell three spaces to the right of the rock
p4470
a(I0
I5
tp4471
a(I0
I5
tp4472
ag7
as(I152
I8
tp4473
(lp4474
S'152_8.png'
p4475
aVgo to one box above southern tree
p4476
a(I7
I4
tp4477
a(I7
I4
tp4478
ag7
as(I20
I7
tp4479
(lp4480
S'20_7.png'
p4481
aVgo to the cell one space north of the southern most horse .
p4482
a(I8
I6
tp4483
a(I8
I6
tp4484
ag7
as(I45
I9
tp4485
(lp4486
S'45_9.png'
p4487
aVselect the cell below the eastern most house .
p4488
a(I8
I9
tp4489
a(I8
I9
tp4490
ag7
as(I119
I6
tp4491
(lp4492
S'119_6.png'
p4493
aVgo to the fifth cell below the house .
p4494
a(I6
I5
tp4495
a(I6
I5
tp4496
ag7
as(I159
I1
tp4497
(lp4498
S'159_1.png'
p4499
aVmove to the square with the westernmost horse .
p4500
a(I8
I1
tp4501
a(I7
I4
tp4502
ag194
as(I242
I2
tp4503
(lp4504
S'242_2.png'
p4505
aVhouse directly below a rock
p4506
a(I6
I3
tp4507
a(I6
I3
tp4508
ag7
as(I85
I3
tp4509
(lp4510
S'85_3.png'
p4511
aVselect the square to the left of the top rock
p4512
a(I1
I4
tp4513
a(I1
I4
tp4514
ag7
as(I14
I1
tp4515
(lp4516
S'14_1.png'
p4517
aVreach cell right to the lowest most rock
p4518
a(I8
I6
tp4519
a(I8
I6
tp4520
ag7
as(I72
I8
tp4521
(lp4522
S'72_8.png'
p4523
aVone below the topmost rock
p4524
a(I1
I1
tp4525
a(I1
I1
tp4526
ag7
as(I211
I8
tp4527
(lp4528
S'211_8.png'
p4529
aVmove 1 cell down the bottom most tree
p4530
a(I3
I7
tp4531
a(I3
I7
tp4532
ag7
as(I236
I0
tp4533
(lp4534
S'236_0.png'
p4535
aVgo to the cell left of the easternmost house .
p4536
a(I7
I1
tp4537
a(I6
I7
tp4538
ag194
as(I248
I3
tp4539
(lp4540
S'248_3.png'
p4541
aVgo to the tree farthest to the right .
p4542
a(I4
I7
tp4543
a(I4
I7
tp4544
ag7
as(I128
I8
tp4545
(lp4546
S'128_8.png'
p4547
aVmove to the cell to the east of the lowest horse
p4548
a(I9
I2
tp4549
a(I9
I2
tp4550
ag7
as(I202
I3
tp4551
(lp4552
S'202_3.png'
p4553
aVgo to the left square of the top left most house
p4554
a(I2
I2
tp4555
a(I9
I0
tp4556
ag194
as(I45
I2
tp4557
(lp4558
S'45_2.png'
p4559
aVgo one cell above the eastern most house .
p4560
a(I6
I9
tp4561
a(I6
I9
tp4562
ag7
as(I230
I6
tp4563
(lp4564
S'230_6.png'
p4565
aVmove to the square to the left of the northern most house
p4566
a(I3
I4
tp4567
a(I3
I4
tp4568
ag7
as(I57
I7
tp4569
(lp4570
S'57_7.png'
p4571
aVmove to the spot between the two lowest houses
p4572
a(I9
I8
tp4573
a(I9
I8
tp4574
ag7
as(I82
I9
tp4575
(lp4576
S'82_9.png'
p4577
aVmove to the cell one left of the easternmost house .
p4578
a(I6
I7
tp4579
a(I6
I7
tp4580
ag7
as(I14
I8
tp4581
(lp4582
S'14_8.png'
p4583
aVreach cell directly below the most right rock
p4584
a(I3
I8
tp4585
a(I3
I8
tp4586
ag7
as(I221
I7
tp4587
(lp4588
S'221_7.png'
p4589
aVthe most western tree .
p4590
a(I5
I4
tp4591
a(I5
I4
tp4592
ag7
as(I39
I0
tp4593
(lp4594
S'39_0.png'
p4595
aVmove to the centermost horse
p4596
a(I3
I8
tp4597
a(I3
I8
tp4598
ag7
as(I208
I4
tp4599
(lp4600
S'208_4.png'
p4601
aVmove to the southern most house
p4602
a(I8
I4
tp4603
a(I8
I4
tp4604
ag7
as(I48
I8
tp4605
(lp4606
S'48_8.png'
p4607
aVmove one cell above the rightmost horse .
p4608
a(I2
I9
tp4609
a(I9
I2
tp4610
ag194
as(I122
I3
tp4611
(lp4612
S'122_3.png'
p4613
aVcell is left to the bottommost house
p4614
a(I5
I2
tp4615
a(I3
I5
tp4616
ag194
as(I51
I5
tp4617
(lp4618
S'51_5.png'
p4619
aVgo to the cell that is to the right of the uppermost horse .
p4620
a(I2
I3
tp4621
a(I2
I3
tp4622
ag7
as(I17
I6
tp4623
(lp4624
S'17_6.png'
p4625
aVbelow the bottom most rock
p4626
a(I5
I6
tp4627
a(I5
I6
tp4628
ag7
as(I116
I1
tp4629
(lp4630
S'116_1.png'
p4631
aVsame problem
p4632
as(I57
I8
tp4633
(lp4634
S'57_8.png'
p4635
aVgo to the spot above the lowest rock
p4636
a(I8
I4
tp4637
a(I8
I4
tp4638
ag7
as(I82
I0
tp4639
(lp4640
S'82_0.png'
p4641
aVmove to the easternmost horse .
p4642
a(I2
I9
tp4643
a(I2
I9
tp4644
ag7
as(I11
I4
tp4645
(lp4646
S'11_4.png'
p4647
aVmove to one square to the right of the southernmost tree .
p4648
a(I6
I2
tp4649
a(I6
I2
tp4650
ag7
as(I107
I8
tp4651
(lp4652
S'107_8.png'
p4653
aVgo to the cell above the western most house and to the left of the horse
p4654
a(I1
I5
tp4655
a(I1
I5
tp4656
ag7
as(I36
I4
tp4657
(lp4658
S'36_4.png'
p4659
aVgo one below the bottommost house .
p4660
a(I7
I7
tp4661
a(I7
I7
tp4662
ag7
as(I110
I7
tp4663
(lp4664
S'110_7.png'
p4665
aVcell to the right of the upper most horse
p4666
a(I3
I4
tp4667
a(I3
I4
tp4668
ag7
as(I221
I0
tp4669
(lp4670
S'221_0.png'
p4671
aVto the right of the lowest rock
p4672
a(I3
I9
tp4673
a(I3
I9
tp4674
ag7
as(I246
I8
tp4675
(lp4676
S'246_8.png'
p4677
aVreach cell left to westernmost tree .
p4678
a(I7
I1
tp4679
a(I7
I1
tp4680
ag7
as(I233
I5
tp4681
(lp4682
S'233_5.png'
p4683
aVthe square to the left of the bottomost horse
p4684
a(I7
I3
tp4685
a(I7
I3
tp4686
ag7
as(I76
I2
tp4687
(lp4688
S'76_2.png'
p4689
aVgo to the cell containing a tree immediately above the house .
p4690
a(I2
I0
tp4691
a(I2
I0
tp4692
ag7
as(I30
I2
tp4693
(lp4694
S'30_2.png'
p4695
aVmove to the cell occupied by the northernmost tree .
p4696
a(I1
I0
tp4697
a(I1
I0
tp4698
ag7
as(I88
I5
tp4699
(lp4700
S'88_5.png'
p4701
aVmove one to the left of the southernmost rock
p4702
a(I7
I5
tp4703
a(I7
I5
tp4704
ag7
as(I141
I5
tp4705
(lp4706
S'141_5.png'
p4707
aVmove one square to the right of the topmost horse
p4708
a(I0
I5
tp4709
a(I0
I5
tp4710
ag7
as(I128
I6
tp4711
(lp4712
S'128_6.png'
p4713
aVmove to the cell north of the lowest horse
p4714
a(I8
I1
tp4715
a(I9
I1
tp4716
ag194
as(I113
I3
tp4717
(lp4718
S'113_3.png'
p4719
aVmove a cell down from the bottom most rock
p4720
a(I7
I1
tp4721
a(I7
I1
tp4722
ag7
as(I116
I8
tp4723
(lp4724
S'116_8.png'
p4725
aVno image shown
p4726
as(I153
I2
tp4727
(lp4728
S'153_2.png'
p4729
aVreach the most northwest tree
p4730
a(I5
I3
tp4731
a(I5
I3
tp4732
ag7
as(I227
I7
tp4733
(lp4734
S'227_7.png'
p4735
aVgo to the top most tree
p4736
a(I1
I2
tp4737
a(I1
I2
tp4738
ag7
as(I135
I7
tp4739
(lp4740
S'135_7.png'
p4741
aVgo to the eastern most house .
p4742
a(I3
I8
tp4743
a(I3
I8
tp4744
ag7
as(I33
I8
tp4745
(lp4746
S'33_8.png'
p4747
aVcell below the middle tree
p4748
a(I6
I5
tp4749
a(I4
I5
tp4750
ag194
as(I107
I1
tp4751
(lp4752
S'107_1.png'
p4753
aVmove to the cell of the upper most hourse
p4754
a(I1
I6
tp4755
a(I1
I6
tp4756
ag7
as(I218
I4
tp4757
(lp4758
S'218_4.png'
p4759
aVreach cell to the right of bottom most tree
p4760
a(I3
I7
tp4761
a(I3
I7
tp4762
ag7
as(I36
I3
tp4763
(lp4764
S'36_3.png'
p4765
aVgo to the top right corner
p4766
a(I0
I9
tp4767
a(I0
I9
tp4768
ag7
as(I147
I0
tp4769
(lp4770
S'147_0.png'
p4771
aVgo to bottommost house .
p4772
a(I7
I4
tp4773
a(I7
I4
tp4774
ag7
as(I258
I5
tp4775
(lp4776
S'258_5.png'
p4777
aVthe bottommost house
p4778
a(I8
I1
tp4779
a(I8
I1
tp4780
ag7
as(I246
I3
tp4781
(lp4782
S'246_3.png'
p4783
aVgo to westernmost tree .
p4784
a(I7
I2
tp4785
a(I7
I2
tp4786
ag7
as(I48
I6
tp4787
(lp4788
S'48_6.png'
p4789
aVmove to the top farthest left rock .
p4790
a(I8
I3
tp4791
a(I3
I8
tp4792
ag194
as(I73
I2
tp4793
(lp4794
S'73_2.png'
p4795
aVbox one left of the northernmost rock
p4796
a(I5
I4
tp4797
a(I5
I4
tp4798
ag7
as(I30
I5
tp4799
(lp4800
S'30_5.png'
p4801
aVmove to the right one cell from the northernmost tree
p4802
a(I1
I1
tp4803
a(I1
I1
tp4804
ag7
as(I55
I7
tp4805
(lp4806
S'55_7.png'
p4807
aVreach the topmost tree
p4808
a(I1
I6
tp4809
a(I1
I6
tp4810
ag7
as(I113
I4
tp4811
(lp4812
S'113_4.png'
p4813
aVmove one cell up from the eastern most house
p4814
a(I7
I9
tp4815
a(I7
I9
tp4816
ag7
as(I67
I0
tp4817
(lp4818
S'67_0.png'
p4819
aVmove to the square to the right of the uppermost tree .
p4820
a(I3
I4
tp4821
a(I3
I4
tp4822
ag7
as(I21
I4
tp4823
(lp4824
S'21_4.png'
p4825
aVgo to cell to left of bottom house
p4826
a(I5
I5
tp4827
a(I5
I5
tp4828
ag7
as(I206
I0
tp4829
(lp4830
S'206_0.png'
p4831
aVmove one cell to the right of the topmost rock
p4832
a(I2
I8
tp4833
a(I2
I8
tp4834
ag7
as(I231
I8
tp4835
(lp4836
S'231_8.png'
p4837
aVclick above the northermost horse
p4838
a(I3
I9
tp4839
a(I4
I9
tp4840
ag194
as(I33
I1
tp4841
(lp4842
S'33_1.png'
p4843
aVgo to the left most house
p4844
a(I7
I0
tp4845
a(I7
I0
tp4846
ag7
as(I107
I6
tp4847
(lp4848
S'107_6.png'
p4849
aVgo to the cell to the right of the western most tree
p4850
a(I8
I2
tp4851
a(I8
I4
tp4852
ag194
as(I147
I9
tp4853
(lp4854
S'147_9.png'
p4855
aVreach cell above most southern rock .
p4856
a(I8
I2
tp4857
a(I8
I2
tp4858
ag7
as(I15
I6
tp4859
(lp4860
S'15_6.png'
p4861
aVmove cell one square left of the easternmost house
p4862
a(I1
I6
tp4863
a(I1
I8
tp4864
ag194
as(I27
I3
tp4865
(lp4866
S'27_3.png'
p4867
aVthe horse above the easternmost horse
p4868
a(I8
I9
tp4869
a(I8
I9
tp4870
ag7
as(I138
I2
tp4871
(lp4872
S'138_2.png'
p4873
aVthe top most horse
p4874
a(I1
I2
tp4875
a(I1
I2
tp4876
ag7
as(I126
I0
tp4877
(lp4878
S'126_0.png'
p4879
aVgo three right of the horse
p4880
a(I0
I5
tp4881
a(I0
I5
tp4882
ag7
as(I237
I3
tp4883
(lp4884
S'237_3.png'
p4885
aVgo one left of the bottommost house .
p4886
a(I6
I4
tp4887
a(I6
I4
tp4888
ag7
as(I249
I0
tp4889
(lp4890
S'249_0.png'
p4891
aVsquare to the right of the right most rock
p4892
a(I5
I7
tp4893
a(I5
I7
tp4894
ag7
as(I67
I9
tp4895
(lp4896
S'67_9.png'
p4897
aVmove to the swuare above the westernmost tree .
p4898
a(I4
I1
tp4899
a(I5
I1
tp4900
ag194
as(I18
I8
tp4901
(lp4902
S'18_8.png'
p4903
aVmove to the cell above the bottom rock .
p4904
a(I7
I2
tp4905
a(I7
I2
tp4906
ag7
as(I132
I0
tp4907
(lp4908
S'132_0.png'
p4909
aVgo above the uppermost house
p4910
a(I2
I7
tp4911
a(I2
I7
tp4912
ag7
as(I157
I8
tp4913
(lp4914
S'157_8.png'
p4915
aVgo to the square directly right of the bottommost horse .
p4916
a(I6
I5
tp4917
a(I6
I5
tp4918
ag7
as(I231
I1
tp4919
(lp4920
S'231_1.png'
p4921
aVclick the northernmost horse
p4922
a(I4
I9
tp4923
a(I4
I9
tp4924
ag7
as(I144
I3
tp4925
(lp4926
S'144_3.png'
p4927
aVthe horse to the left of the house
p4928
a(I2
I0
tp4929
a(I2
I0
tp4930
ag7
as(I243
I2
tp4931
(lp4932
S'243_2.png'
p4933
aVchoose the cell one below the rightmost rock .
p4934
a(I3
I9
tp4935
a(I8
I8
tp4936
ag194
as(I86
I1
tp4937
(lp4938
S'86_1.png'
p4939
aVgo one cell to the right of the southernmost rock
p4940
a(I5
I8
tp4941
a(I5
I8
tp4942
ag7
as(I209
I7
tp4943
(lp4944
S'209_7.png'
p4945
aVmove to the square directly right of the top most tree
p4946
a(I1
I5
tp4947
a(I1
I5
tp4948
ag7
as(I52
I0
tp4949
(lp4950
S'52_0.png'
p4951
aVgo to easternmost horse
p4952
a(I3
I7
tp4953
a(I3
I7
tp4954
ag7
as(I77
I8
tp4955
(lp4956
S'77_8.png'
p4957
aVwesternmost house
p4958
a(I4
I1
tp4959
a(I4
I1
tp4960
ag7
as(I64
I3
tp4961
(lp4962
S'64_3.png'
p4963
aVreach the cell below the bottom most tree
p4964
a(I5
I6
tp4965
a(I5
I6
tp4966
ag7
as(I249
I9
tp4967
(lp4968
S'249_9.png'
p4969
aVcell below the right most rock
p4970
a(I6
I6
tp4971
a(I6
I6
tp4972
ag7
as(I18
I3
tp4973
(lp4974
S'18_3.png'
p4975
aVmove to the cell to the right of the most northwest tree .
p4976
a(I7
I2
tp4977
a(I7
I2
tp4978
ag7
as(I203
I5
tp4979
(lp4980
S'203_5.png'
p4981
aVgo to the cell to the left of the two horses next to each other
p4982
a(I3
I1
tp4983
a(I3
I1
tp4984
ag7
as(I43
I9
tp4985
(lp4986
S'43_9.png'
p4987
aVgo to the cell that is four blocks right from the only house
p4988
a(I3
I7
tp4989
a(I3
I7
tp4990
ag7
as(I117
I2
tp4991
(lp4992
S'117_2.png'
p4993
aVreach cell of the topmost tree
p4994
a(I1
I7
tp4995
a(I1
I7
tp4996
ag7
as(I46
I6
tp4997
(lp4998
S'46_6.png'
p4999
aVgo to the cell above the bottommost tree .
p5000
a(I4
I7
tp5001
a(I4
I7
tp5002
ag7
as(I157
I1
tp5003
(lp5004
S'157_1.png'
p5005
aVgo to the square directly to the left of the topmost horse .
p5006
a(I3
I8
tp5007
a(I3
I8
tp5008
ag7
as(I12
I1
tp5009
(lp5010
S'12_1.png'
p5011
aVgo to the northmost horse .
p5012
a(I1
I7
tp5013
a(I1
I7
tp5014
ag7
as(I24
I4
tp5015
(lp5016
S'24_4.png'
p5017
aVmove one cell above the leftmost horse .
p5018
a(I0
I1
tp5019
a(I0
I1
tp5020
ag7
as(I151
I3
tp5021
(lp5022
S'151_3.png'
p5023
aVcell three below the top horse
p5024
a(I3
I1
tp5025
a(I3
I1
tp5026
ag7
as(I123
I5
tp5027
(lp5028
S'123_5.png'
p5029
aVmove to the bottommost house .
p5030
a(I8
I0
tp5031
a(I8
I0
tp5032
ag7
as(I77
I1
tp5033
(lp5034
S'77_1.png'
p5035
aVmove cell to the right of the northernmost house
p5036
a(I1
I5
tp5037
a(I1
I5
tp5038
ag7
as(I31
I5
tp5039
(lp5040
S'31_5.png'
p5041
aVgo to topmost and leftmost tree .
p5042
a(I2
I0
tp5043
a(I2
I0
tp5044
ag7
as(I89
I6
tp5045
(lp5046
S'89_6.png'
p5047
aVone square to the left of the rightmost house .
p5048
a(I5
I7
tp5049
a(I5
I7
tp5050
ag7
as(I129
I5
tp5051
(lp5052
S'129_5.png'
p5053
aVreach one square to the right of the left-most horse .
p5054
a(I3
I2
tp5055
a(I3
I2
tp5056
ag7
as(I154
I7
tp5057
(lp5058
S'154_7.png'
p5059
aVselect the house that is directly above a rock
p5060
a(I6
I5
tp5061
a(I6
I5
tp5062
ag7
as(I46
I9
tp5063
(lp5064
S'46_9.png'
p5065
aVgo to the bottommost tree .
p5066
a(I5
I7
tp5067
a(I5
I7
tp5068
ag7
as(I253
I6
tp5069
(lp5070
S'253_6.png'
p5071
aVselect the westernmost tree .
p5072
a(I4
I1
tp5073
a(I4
I1
tp5074
ag7
as(I240
I5
tp5075
(lp5076
S'240_5.png'
p5077
aVgo to the square to right of the left most horse .
p5078
a(I1
I2
tp5079
a(I1
I2
tp5080
ag7
as(I80
I9
tp5081
(lp5082
S'80_9.png'
p5083
aVhouse that is in the middle of the other two houses
p5084
a(I3
I0
tp5085
a(I3
I0
tp5086
ag7
as(I83
I4
tp5087
(lp5088
S'83_4.png'
p5089
aVgo to the cell to the right of the westernmost tree .
p5090
a(I3
I1
tp5091
a(I3
I1
tp5092
ag7
as(I148
I5
tp5093
(lp5094
S'148_5.png'
p5095
aVmove to the square to the right of the uppermost horse
p5096
a(I2
I7
tp5097
a(I2
I7
tp5098
ag7
as(I247
I4
tp5099
(lp5100
S'247_4.png'
p5101
aVreach cell to the right of the eastern up most tree
p5102
a(I0
I2
tp5103
a(I0
I2
tp5104
ag7
as(I49
I5
tp5105
(lp5106
S'49_5.png'
p5107
aVreach the cell one space to the left of the westernmost house .
p5108
a(I8
I0
tp5109
a(I8
I0
tp5110
ag7
as(I74
I7
tp5111
(lp5112
S'74_7.png'
p5113
aVreach the cell 4 above the bottom most tree
p5114
a(I5
I9
tp5115
a(I5
I9
tp5116
ag7
as(I213
I5
tp5117
(lp5118
S'213_5.png'
p5119
aVreach cell to the left of westernmost house
p5120
a(I5
I0
tp5121
a(I5
I0
tp5122
ag7
as(I31
I2
tp5123
(lp5124
S'31_2.png'
p5125
aVgo to center tree .
p5126
a(I3
I1
tp5127
a(I3
I1
tp5128
ag7
as(I142
I3
tp5129
(lp5130
S'142_3.png'
p5131
aVcell of the most western house on the bottom .
p5132
a(I9
I0
tp5133
a(I9
I0
tp5134
ag7
as(I200
I6
tp5135
(lp5136
S'200_6.png'
p5137
aVgo to the space below the top horse
p5138
a(I3
I0
tp5139
a(I3
I0
tp5140
ag7
as(I43
I7
tp5141
(lp5142
S'43_7.png'
p5143
aVreach the cell that is one block above the bottom most rock
p5144
a(I5
I7
tp5145
a(I5
I7
tp5146
ag7
as(I68
I5
tp5147
(lp5148
S'68_5.png'
p5149
aVmove to the square to the left of the topmost house .
p5150
a(I6
I6
tp5151
a(I6
I6
tp5152
ag7
as(I22
I9
tp5153
(lp5154
S'22_9.png'
p5155
aVgo to the cell above the bottommost rock
p5156
a(I7
I2
tp5157
a(I7
I2
tp5158
ag7
as(I80
I0
tp5159
(lp5160
S'80_0.png'
p5161
aVthe furthest east horse
p5162
a(I9
I3
tp5163
a(I9
I3
tp5164
ag7
as(I207
I7
tp5165
(lp5166
S'207_7.png'
p5167
aVplace the object to the left of the bottom most tree under a rock
p5168
a(I7
I4
tp5169
a(I7
I4
tp5170
ag7
as(I34
I4
tp5171
(lp5172
S'34_4.png'
p5173
aVgo to the higher of westernmost houses
p5174
a(I4
I0
tp5175
a(I4
I0
tp5176
ag7
as(I219
I0
tp5177
(lp5178
S'219_0.png'
p5179
aVcell is the right most horse .
p5180
a(I7
I8
tp5181
a(I7
I8
tp5182
ag7
as(I62
I3
tp5183
(lp5184
S'62_3.png'
p5185
aVreach the cell with the easternmost rock .
p5186
a(I9
I8
tp5187
a(I9
I8
tp5188
ag7
as(I120
I6
tp5189
(lp5190
S'120_6.png'
p5191
aVcell to the right of the left most horse .
p5192
a(I4
I2
tp5193
a(I4
I2
tp5194
ag7
as(I28
I6
tp5195
(lp5196
S'28_6.png'
p5197
aVmove to cell to the left of leftmost tree
p5198
a(I2
I1
tp5199
a(I2
I1
tp5200
ag7
as(I127
I7
tp5201
(lp5202
S'127_7.png'
p5203
aVgo to the cell above the southern most rock
p5204
a(I7
I6
tp5205
a(I7
I6
tp5206
ag7
as(I40
I1
tp5207
(lp5208
S'40_1.png'
p5209
aVmove to the rightmost rock
p5210
a(I5
I8
tp5211
a(I5
I8
tp5212
ag7
as(I154
I9
tp5213
(lp5214
S'154_9.png'
p5215
aVselect the cell above the bottommost rock
p5216
a(I8
I9
tp5217
a(I9
I8
tp5218
ag194
as(I250
I5
tp5219
(lp5220
S'250_5.png'
p5221
aVgo one cell right of the northern most rock
p5222
a(I2
I9
tp5223
a(I2
I9
tp5224
ag7
as(I204
I9
tp5225
(lp5226
S'204_9.png'
p5227
aVmove to one space above the left most horse
p5228
a(I2
I2
tp5229
a(I2
I2
tp5230
ag7
as(I22
I0
tp5231
(lp5232
S'22_0.png'
p5233
aVgo to the cell above the bottommost horse
p5234
a(I7
I8
tp5235
a(I7
I8
tp5236
ag7
as(I80
I7
tp5237
(lp5238
S'80_7.png'
p5239
aVthe house the is most north
p5240
a(I2
I0
tp5241
a(I2
I0
tp5242
ag7
as(I105
I1
tp5243
(lp5244
S'105_1.png'
p5245
aVmove cell below of the farthest right house
p5246
a(I4
I9
tp5247
a(I3
I9
tp5248
ag194
as(I13
I9
tp5249
(lp5250
S'13_9.png'
p5251
aVgo to one left of most western horse
p5252
a(I4
I1
tp5253
a(I4
I1
tp5254
ag7
as(I74
I9
tp5255
(lp5256
S'74_9.png'
p5257
aVreach the bottom most tree
p5258
a(I9
I9
tp5259
a(I9
I9
tp5260
ag7
as(I210
I2
tp5261
(lp5262
S'210_2.png'
p5263
aVone square to the right of the horse .
p5264
a(I6
I2
tp5265
a(I6
I2
tp5266
ag7
as(I139
I2
tp5267
(lp5268
S'139_2.png'
p5269
aVgo to cell of rock most to bottom
p5270
a(I6
I2
tp5271
a(I6
I2
tp5272
ag7
as(I238
I1
tp5273
(lp5274
S'238_1.png'
p5275
aVgo to the topmost horse
p5276
a(I1
I1
tp5277
a(I1
I1
tp5278
ag7
as(I40
I8
tp5279
(lp5280
S'40_8.png'
p5281
aVone below rightmost rock
p5282
a(I6
I8
tp5283
a(I6
I8
tp5284
ag7
as(I65
I0
tp5285
(lp5286
S'65_0.png'
p5287
aVgo to the eastmost horse
p5288
a(I4
I6
tp5289
a(I4
I6
tp5290
ag7
as(I204
I0
tp5291
(lp5292
S'204_0.png'
p5293
aVmove to the right most horse
p5294
a(I1
I7
tp5295
a(I1
I7
tp5296
ag7
as(I256
I4
tp5297
(lp5298
S'256_4.png'
p5299
aVreach the cell to the left of the topmost horse
p5300
a(I3
I5
tp5301
a(I3
I5
tp5302
ag7
as(I59
I2
tp5303
(lp5304
S'59_2.png'
p5305
aVreach cell one below topmost rock
p5306
a(I3
I9
tp5307
a(I3
I9
tp5308
ag7
as(I13
I2
tp5309
(lp5310
S'13_2.png'
p5311
aVgo to bottom most tree
p5312
a(I7
I4
tp5313
a(I7
I4
tp5314
ag7
as(I25
I7
tp5315
(lp5316
S'25_7.png'
p5317
aVreach cell below the westmost upmost rock
p5318
a(I1
I8
tp5319
a(I1
I8
tp5320
ag7
as(I238
I8
tp5321
(lp5322
S'238_8.png'
p5323
aVgo to the topmost house
p5324
a(I2
I0
tp5325
a(I2
I0
tp5326
ag7
as(I16
I8
tp5327
(lp5328
S'16_8.png'
p5329
aVgo to cell of southernmost house .
p5330
a(I7
I1
tp5331
a(I7
I1
tp5332
ag7
as(I19
I5
tp5333
(lp5334
S'19_5.png'
p5335
aVgo to cell to the right of the leftmost rock .
p5336
a(I2
I1
tp5337
a(I2
I1
tp5338
ag7
as(I155
I8
tp5339
(lp5340
S'155_8.png'
p5341
aVmove one cell north of the topmost rock
p5342
a(I1
I4
tp5343
a(I1
I4
tp5344
ag7
as(I229
I1
tp5345
(lp5346
S'229_1.png'
p5347
aVmove to the cell one block above the easternmost house
p5348
a(I4
I3
tp5349
a(I4
I3
tp5350
ag7
as(I241
I6
tp5351
(lp5352
S'241_6.png'
p5353
aVone square to the right of the rightmost horse .
p5354
a(I0
I9
tp5355
a(I0
I9
tp5356
ag7
as(I10
I6
tp5357
(lp5358
S'10_6.png'
p5359
aVgo to the square directly above the top row of horses , directly above the top most horse on the left .
p5360
a(I0
I2
tp5361
a(I2
I1
tp5362
ag194
as(I84
I1
tp5363
(lp5364
S'84_1.png'
p5365
aVone block to the right of the western most house
p5366
a(I5
I2
tp5367
a(I5
I2
tp5368
ag7
as(I149
I6
tp5369
(lp5370
S'149_6.png'
p5371
aVgo to the leftmost tree
p5372
a(I6
I3
tp5373
a(I6
I3
tp5374
ag7
as(I223
I3
tp5375
(lp5376
S'223_3.png'
p5377
aVgo to the cell to the left of the bottom house furthest to the left .
p5378
a(I9
I0
tp5379
a(I9
I0
tp5380
ag7
as(I25
I8
tp5381
(lp5382
S'25_8.png'
p5383
aVreach the cell to the upmost rock on the west side
p5384
a(I0
I7
tp5385
a(I0
I9
tp5386
ag194
as(I136
I5
tp5387
(lp5388
S'136_5.png'
p5389
aVmove to cell left of bottommost house .
p5390
a(I9
I3
tp5391
a(I9
I3
tp5392
ag7
as(I235
I4
tp5393
(lp5394
S'235_4.png'
p5395
aVgo to the cell left of the bottommost house
p5396
a(I8
I8
tp5397
a(I8
I8
tp5398
ag7
as(I75
I8
tp5399
(lp5400
S'75_8.png'
p5401
aVgo to the westernmost tree .
p5402
a(I3
I1
tp5403
a(I3
I1
tp5404
ag7
as(I78
I7
tp5405
(lp5406
S'78_7.png'
p5407
aVgo west of the westernmost horse .
p5408
a(I3
I0
tp5409
a(I3
I0
tp5410
ag7
as(I214
I8
tp5411
(lp5412
S'214_8.png'
p5413
aVgo to cell to the left of the eastern most rock .
p5414
a(I9
I8
tp5415
a(I9
I8
tp5416
ag7
as(I143
I4
tp5417
(lp5418
S'143_4.png'
p5419
aVone square to the right of the that is the farthest south
p5420
a(I9
I2
tp5421
a(I9
I2
tp5422
ag7
as(I201
I5
tp5423
(lp5424
S'201_5.png'
p5425
aVgo to the tree under the rock
p5426
a(I6
I9
tp5427
a(I6
I9
tp5428
ag7
as(I226
I7
tp5429
(lp5430
S'226_7.png'
p5431
aVgo to the cell to the left of the rightmost house .
p5432
a(I3
I8
tp5433
a(I3
I8
tp5434
ag7
as(I44
I2
tp5435
(lp5436
S'44_2.png'
p5437
aVgo to the square above the easternmost house
p5438
a(I7
I7
tp5439
a(I7
I7
tp5440
ag7
as(I155
I1
tp5441
(lp5442
S'155_1.png'
p5443
aVgo to the cell directly north of the bottomost rock
p5444
a(I6
I8
tp5445
a(I6
I8
tp5446
ag7
as(I69
I6
tp5447
(lp5448
S'69_6.png'
p5449
aVgo to cell above westernmost rock .
p5450
a(I6
I0
tp5451
a(I8
I2
tp5452
ag194
as(I56
I5
tp5453
(lp5454
S'56_5.png'
p5455
aVgo to the cell left of the rightmost house
p5456
a(I4
I6
tp5457
a(I4
I6
tp5458
ag7
as(I10
I1
tp5459
(lp5460
S'10_1.png'
p5461
aVgo to the square to the left of the top most horse on the right hand side .
p5462
a(I1
I6
tp5463
a(I1
I6
tp5464
ag7
as(I84
I8
tp5465
(lp5466
S'84_8.png'
p5467
aVeastern most house
p5468
a(I5
I1
tp5469
a(I7
I7
tp5470
ag194
as(I38
I4
tp5471
(lp5472
S'38_4.png'
p5473
aVreach the square to the left of the house on the bottom of the map
p5474
a(I9
I5
tp5475
a(I9
I5
tp5476
ag7
as(I223
I8
tp5477
(lp5478
S'223_8.png'
p5479
aVgo to the cell of the most southwestern house
p5480
a(I9
I1
tp5481
a(I9
I1
tp5482
ag7
as(I63
I4
tp5483
(lp5484
S'63_4.png'
p5485
aVto the left of house 2
p5486
a(I2
I0
tp5487
a(I2
I0
tp5488
ag7
as(I121
I5
tp5489
(lp5490
S'121_5.png'
p5491
aVgo one to the right of the leftmost tree .
p5492
a(I2
I4
tp5493
a(I2
I4
tp5494
ag7
as(I232
I0
tp5495
(lp5496
S'232_0.png'
p5497
aVreach the cell above the easternmost rock .
p5498
a(I5
I9
tp5499
a(I5
I9
tp5500
ag7
as(I75
I1
tp5501
(lp5502
S'75_1.png'
p5503
aVgo to the topmost tree .
p5504
a(I0
I2
tp5505
a(I0
I2
tp5506
ag7
as(I29
I5
tp5507
(lp5508
S'29_5.png'
p5509
aVgo to left most tree
p5510
a(I1
I3
tp5511
a(I1
I3
tp5512
ag7
as(I140
I8
tp5513
(lp5514
S'140_8.png'
p5515
aVgo to the leftmost house .
p5516
a(I7
I4
tp5517
a(I7
I4
tp5518
ag7
as(I214
I3
tp5519
(lp5520
S'214_3.png'
p5521
aVgo to cell to the east of the northern most rock .
p5522
a(I7
I7
tp5523
a(I7
I5
tp5524
ag194
as(I16
I6
tp5525
(lp5526
S'16_6.png'
p5527
aVgo to one cell right of southernmost tree .
p5528
a(I9
I3
tp5529
a(I9
I3
tp5530
ag7
as(I115
I7
tp5531
(lp5532
S'115_7.png'
p5533
aVmove one to the left of the easternmost house
p5534
a(I3
I8
tp5535
a(I3
I8
tp5536
ag7
as(I155
I6
tp5537
(lp5538
S'155_6.png'
p5539
aVmove one cell south of the topmost horse
p5540
a(I3
I0
tp5541
a(I3
I0
tp5542
ag7
as(I23
I7
tp5543
(lp5544
S'23_7.png'
p5545
aVto get the rock to the horse
p5546
a(I6
I9
tp5547
a(I7
I7
tp5548
ag194
as(I10
I8
tp5549
(lp5550
S'10_8.png'
p5551
aVgo to the square that has a horse directly to the right and directly below it .
p5552
a(I4
I3
tp5553
a(I5
I3
tp5554
ag194
as(I35
I0
tp5555
(lp5556
S'35_0.png'
p5557
aVgo to the northmost house .
p5558
a(I1
I6
tp5559
a(I1
I6
tp5560
ag7
as(I146
I5
tp5561
(lp5562
S'146_5.png'
p5563
aVright of the horse
p5564
a(I7
I7
tp5565
a(I7
I7
tp5566
ag7
as(I149
I8
tp5567
(lp5568
S'149_8.png'
p5569
aVgo to the cell below the topmost house
p5570
a(I2
I5
tp5571
a(I2
I5
tp5572
ag7
as(I60
I8
tp5573
(lp5574
S'60_8.png'
p5575
aVone cell below southmost tree
p5576
a(I5
I3
tp5577
a(I5
I3
tp5578
ag7
as(I245
I4
tp5579
(lp5580
S'245_4.png'
p5581
aVthe left highest rock
p5582
a(I0
I2
tp5583
a(I0
I2
tp5584
ag7
as(I232
I7
tp5585
(lp5586
S'232_7.png'
p5587
aVreach the cell above the easternmost rock .
p5588
a(I5
I9
tp5589
a(I5
I9
tp5590
ag7
as(I75
I6
tp5591
(lp5592
S'75_6.png'
p5593
aVgo to the easternmost tree .
p5594
a(I3
I8
tp5595
a(I3
I8
tp5596
ag7
as(I100
I6
tp5597
(lp5598
S'100_6.png'
p5599
aVreach the cell to the left of the topmost house
p5600
a(I4
I0
tp5601
a(I4
I0
tp5602
ag7
as(I140
I7
tp5603
(lp5604
S'140_7.png'
p5605
aVgo to the cell to the left of the easternmost house .
p5606
a(I8
I6
tp5607
a(I7
I3
tp5608
ag194
as(I112
I1
tp5609
(lp5610
S'112_1.png'
p5611
aVgo to cell immediately to left of the rightmost horse
p5612
a(I1
I7
tp5613
a(I1
I7
tp5614
ag7
as(I239
I6
tp5615
(lp5616
S'239_6.png'
p5617
aVthe bottom most house
p5618
a(I9
I6
tp5619
a(I9
I6
tp5620
ag7
as(I152
I2
tp5621
(lp5622
S'152_2.png'
p5623
aVgo to bottom tree
p5624
a(I8
I4
tp5625
a(I8
I4
tp5626
ag7
as(I69
I8
tp5627
(lp5628
S'69_8.png'
p5629
aVtwo cells west of house .
p5630
a(I9
I3
tp5631
a(I9
I3
tp5632
ag7
as(I205
I3
tp5633
(lp5634
S'205_3.png'
p5635
aVgo to the cell to the left of the easternmost rock .
p5636
a(I3
I7
tp5637
a(I3
I7
tp5638
ag7
as(I134
I1
tp5639
(lp5640
S'134_1.png'
p5641
aVreach cell to the uppermost horse
p5642
a(I3
I3
tp5643
a(I3
I3
tp5644
ag7
as(I119
I8
tp5645
(lp5646
S'119_8.png'
p5647
aVgo to the cell below the topmost rock .
p5648
a(I3
I8
tp5649
a(I3
I8
tp5650
ag7
as(I217
I0
tp5651
(lp5652
S'217_0.png'
p5653
aVgo to the square to the right of the topmost rock
p5654
a(I3
I6
tp5655
a(I3
I6
tp5656
ag7
as(I35
I9
tp5657
(lp5658
S'35_9.png'
p5659
aVgo to the southernmost tree
p5660
a(I4
I7
tp5661
a(I4
I7
tp5662
ag7
as(I257
I7
tp5663
(lp5664
S'257_7.png'
p5665
aVgo to southern most tree .
p5666
a(I8
I2
tp5667
a(I8
I2
tp5668
ag7
as(I242
I8
tp5669
(lp5670
S'242_8.png'
p5671
aVdirectly below horse
p5672
a(I2
I8
tp5673
a(I2
I8
tp5674
ag7
as(I60
I7
tp5675
(lp5676
S'60_7.png'
p5677
aVsouthmost tree
p5678
a(I4
I3
tp5679
a(I4
I3
tp5680
ag7
as(I72
I2
tp5681
(lp5682
S'72_2.png'
p5683
aVone right of the topmost tree
p5684
a(I1
I5
tp5685
a(I1
I5
tp5686
ag7
as(I211
I2
tp5687
(lp5688
S'211_2.png'
p5689
aVmove to the topmost house
p5690
a(I1
I8
tp5691
a(I1
I8
tp5692
ag7
as(I125
I3
tp5693
(lp5694
S'125_3.png'
p5695
aVmove one square below the leftmost rock
p5696
a(I6
I0
tp5697
a(I6
I0
tp5698
ag7
as(I54
I1
tp5699
(lp5700
S'54_1.png'
p5701
aVgo to the cell immediately to the left of the bottommost horse
p5702
a(I8
I8
tp5703
a(I8
I8
tp5704
ag7
as(I152
I9
tp5705
(lp5706
S'152_9.png'
p5707
aVgo to most northern tree
p5708
a(I5
I9
tp5709
a(I5
I9
tp5710
ag7
as(I20
I0
tp5711
(lp5712
S'20_0.png'
p5713
aVgo to the cell with the southernmost horse
p5714
a(I9
I6
tp5715
a(I9
I6
tp5716
ag7
as(I45
I8
tp5717
(lp5718
S'45_8.png'
p5719
aVgo to the southern most house .
p5720
a(I9
I5
tp5721
a(I9
I5
tp5722
ag7
as(I119
I1
tp5723
(lp5724
S'119_1.png'
p5725
aVgo to the cell above the topmost rock .
p5726
a(I1
I8
tp5727
a(I1
I8
tp5728
ag7
as(I159
I0
tp5729
(lp5730
S'159_0.png'
p5731
aVmove to the square with the easternmost horse .
p5732
a(I8
I3
tp5733
a(I8
I3
tp5734
ag7
as(I217
I9
tp5735
(lp5736
S'217_9.png'
p5737
aVgo to the rock directly under the top-most rock
p5738
a(I4
I5
tp5739
a(I4
I5
tp5740
ag7
as(I242
I3
tp5741
(lp5742
S'242_3.png'
p5743
aVhouse directly below a rock
p5744
a(I6
I3
tp5745
a(I6
I3
tp5746
ag7
as(I11
I9
tp5747
(lp5748
S'11_9.png'
p5749
aVmove to one square to the right of the northernmost tree .
p5750
a(I2
I4
tp5751
a(I2
I4
tp5752
ag7
as(I85
I2
tp5753
(lp5754
S'85_2.png'
p5755
aVselect the square above the easternmost rock
p5756
a(I2
I8
tp5757
a(I2
I8
tp5758
ag7
as(I14
I6
tp5759
(lp5760
S'14_6.png'
p5761
aVreach cell right to the furthest right block
p5762
a(I2
I9
tp5763
a(I2
I9
tp5764
ag7
as(I72
I9
tp5765
(lp5766
S'72_9.png'
p5767
aVone left of the topmost tree
p5768
a(I1
I3
tp5769
a(I1
I3
tp5770
ag7
as(I236
I1
tp5771
(lp5772
S'236_1.png'
p5773
aVgo to the cell right of the southernmost tree .
p5774
a(I7
I8
tp5775
a(I7
I8
tp5776
ag7
as(I248
I4
tp5777
(lp5778
S'248_4.png'
p5779
aVgo one to the left of the bottom-most house .
p5780
a(I5
I6
tp5781
a(I5
I6
tp5782
ag7
as(I128
I9
tp5783
(lp5784
S'128_9.png'
p5785
aVmove to the cell with the tree furthest to the east
p5786
a(I8
I9
tp5787
a(I8
I9
tp5788
ag7
as(I202
I0
tp5789
(lp5790
S'202_0.png'
p5791
aVgo to the left square of the right most horse
p5792
a(I3
I4
tp5793
a(I3
I4
tp5794
ag7
as(I45
I1
tp5795
(lp5796
S'45_1.png'
p5797
aVgo to the topmost horse .
p5798
a(I0
I4
tp5799
a(I0
I4
tp5800
ag7
as(I230
I7
tp5801
(lp5802
S'230_7.png'
p5803
aVmove to the square to the left of the southernmost horse
p5804
a(I8
I2
tp5805
a(I8
I2
tp5806
ag7
as(I159
I9
tp5807
(lp5808
S'159_9.png'
p5809
aVmove to the square to the right of the northernmost tree .
p5810
a(I3
I1
tp5811
a(I3
I1
tp5812
ag7
as(I57
I6
tp5813
(lp5814
S'57_6.png'
p5815
aVmove to the spot where the lowest and leftmost house is
p5816
a(I9
I7
tp5817
a(I9
I7
tp5818
ag7
as(I82
I6
tp5819
(lp5820
S'82_6.png'
p5821
aVmove to the cell one above the bottommost house .
p5822
a(I8
I7
tp5823
a(I8
I7
tp5824
ag7
as(I14
I9
tp5825
(lp5826
S'14_9.png'
p5827
aVgo the the most right rock
p5828
a(I2
I8
tp5829
a(I2
I8
tp5830
ag7
as(I221
I6
tp5831
(lp5832
S'221_6.png'
p5833
aVthe cell that is left of the southernest house
p5834
a(I8
I3
tp5835
a(I8
I3
tp5836
ag7
as(I39
I3
tp5837
(lp5838
S'39_3.png'
p5839
aVmove to the top most horse
p5840
a(I0
I2
tp5841
a(I0
I2
tp5842
ag7
as(I208
I5
tp5843
(lp5844
S'208_5.png'
p5845
aVmove between the northern most rock and house
p5846
a(I0
I6
tp5847
a(I0
I6
tp5848
ag7
as(I48
I9
tp5849
(lp5850
S'48_9.png'
p5851
aVmove one cell above the farthest right rock .
p5852
a(I3
I8
tp5853
a(I8
I2
tp5854
ag194
as(I122
I0
tp5855
(lp5856
S'122_0.png'
p5857
aVcell is right to the topmost tree
p5858
a(I0
I5
tp5859
a(I0
I5
tp5860
ag7
as(I233
I3
tp5861
(lp5862
S'233_3.png'
p5863
aVthe topmost horse
p5864
a(I1
I9
tp5865
a(I1
I9
tp5866
ag7
as(I51
I4
tp5867
(lp5868
S'51_4.png'
p5869
aVgo to the cell directly below the southernmost rock .
p5870
a(I6
I3
tp5871
a(I6
I3
tp5872
ag7
as(I76
I4
tp5873
(lp5874
S'76_4.png'
p5875
aVgo to the cell immediately below the easternmost tree .
p5876
a(I8
I6
tp5877
a(I8
I6
tp5878
ag7
as(I17
I5
tp5879
(lp5880
S'17_5.png'
p5881
aVcell to right of the leftmost horse
p5882
a(I6
I3
tp5883
a(I6
I3
tp5884
ag7
as(I128
I0
tp5885
(lp5886
S'128_0.png'
p5887
aVmove to the north of the most eastern house
p5888
a(I7
I2
tp5889
a(I7
I2
tp5890
ag7
as(I113
I9
tp5891
(lp5892
S'113_9.png'
p5893
aVmove one cell up from the bottom most rock
p5894
a(I5
I1
tp5895
a(I5
I1
tp5896
ag7
as(I116
I2
tp5897
(lp5898
S'116_2.png'
p5899
aVagain , images are not coming in
p5900
as(I227
I1
tp5901
(lp5902
S'227_1.png'
p5903
aVmove to the cell to the left of top most tree
p5904
a(I1
I1
tp5905
a(I1
I1
tp5906
ag7
as(I82
I1
tp5907
(lp5908
S'82_1.png'
p5909
aVmove to the topmost horse .
p5910
a(I0
I5
tp5911
a(I0
I5
tp5912
ag7
as(I135
I9
tp5913
(lp5914
S'135_9.png'
p5915
aVgo to the square above the bottom most rock .
p5916
a(I2
I7
tp5917
a(I2
I7
tp5918
ag7
as(I11
I7
tp5919
(lp5920
S'11_7.png'
p5921
aVmove to one square below the westernmost horse .
p5922
a(I6
I0
tp5923
a(I6
I0
tp5924
ag7
as(I36
I5
tp5925
(lp5926
S'36_5.png'
p5927
aVgo one below the topmost horse
p5928
a(I1
I8
tp5929
a(I1
I8
tp5930
ag7
as(I110
I4
tp5931
(lp5932
S'110_4.png'
p5933
aVcell to the right of the left most tree
p5934
a(I3
I6
tp5935
a(I3
I6
tp5936
ag7
as(I246
I9
tp5937
(lp5938
S'246_9.png'
p5939
aVgo to bottom most house .
p5940
a(I8
I3
tp5941
a(I8
I3
tp5942
ag7
as(I48
I0
tp5943
(lp5944
S'48_0.png'
p5945
aVmove to the farthest right horse .
p5946
a(I3
I9
tp5947
a(I9
I3
tp5948
ag194
as(I233
I4
tp5949
(lp5950
S'233_4.png'
p5951
aVthe square above the bottomost horse
p5952
a(I6
I4
tp5953
a(I6
I4
tp5954
ag7
as(I76
I3
tp5955
(lp5956
S'76_3.png'
p5957
aVgo to the cell immediately above the rightmost tree .
p5958
a(I6
I6
tp5959
a(I6
I6
tp5960
ag7
as(I30
I3
tp5961
(lp5962
S'30_3.png'
p5963
aVmove two cell from left of the second westernmost tree .
p5964
a(I5
I2
tp5965
a(I7
I0
tp5966
ag194
as(I88
I6
tp5967
(lp5968
S'88_6.png'
p5969
aVmove one down from the easternmost rock
p5970
a(I1
I9
tp5971
a(I1
I9
tp5972
ag7
as(I141
I4
tp5973
(lp5974
S'141_4.png'
p5975
aVmove one square below lowest rock
p5976
a(I8
I5
tp5977
a(I8
I5
tp5978
ag7
as(I128
I7
tp5979
(lp5980
S'128_7.png'
p5981
aVmove to the cell north of the last tree in the west
p5982
a(I8
I0
tp5983
a(I8
I0
tp5984
ag7
as(I55
I9
tp5985
(lp5986
S'55_9.png'
p5987
aVreach the tree on the bottom .
p5988
a(I7
I2
tp5989
a(I7
I2
tp5990
ag7
as(I113
I2
tp5991
(lp5992
S'113_2.png'
p5993
aVmove one cell down from the topmost rock
p5994
a(I4
I7
tp5995
a(I4
I7
tp5996
ag7
as(I116
I9
tp5997
(lp5998
S'116_9.png'
p5999
aVimage not showing
p6000
as(I153
I1
tp6001
(lp6002
S'153_1.png'
p6003
aVreach the cell to the left of the farthest east tree
p6004
a(I5
I8
tp6005
a(I5
I8
tp6006
ag7
as(I227
I6
tp6007
(lp6008
S'227_6.png'
p6009
aVgo to the fartherst left tree
p6010
a(I6
I0
tp6011
a(I6
I0
tp6012
ag7
as(I135
I6
tp6013
(lp6014
S'135_6.png'
p6015
aVgo to the upper most house .
p6016
a(I0
I2
tp6017
a(I0
I2
tp6018
ag7
as(I107
I0
tp6019
(lp6020
S'107_0.png'
p6021
aVmove to the cell of the bottom most horse
p6022
a(I7
I9
tp6023
a(I7
I9
tp6024
ag7
as(I218
I5
tp6025
(lp6026
S'218_5.png'
p6027
aVreach cell one under topmost horse
p6028
a(I5
I1
tp6029
a(I1
I3
tp6030
ag194
as(I147
I3
tp6031
(lp6032
S'147_3.png'
p6033
aVreach cell above most southern house .
p6034
a(I6
I4
tp6035
a(I6
I4
tp6036
ag7
as(I258
I2
tp6037
(lp6038
S'258_2.png'
p6039
aVthe tree to the left of the bottommost house
p6040
a(I8
I0
tp6041
a(I8
I0
tp6042
ag7
as(I246
I0
tp6043
(lp6044
S'246_0.png'
p6045
aVreach cell three down from easternmost house .
p6046
a(I4
I4
tp6047
a(I4
I4
tp6048
ag7
as(I48
I7
tp6049
(lp6050
S'48_7.png'
p6051
aVmove to the horse directly to the left of the house .
p6052
a(I7
I3
tp6053
a(I3
I7
tp6054
ag194
as(I73
I1
tp6055
(lp6056
S'73_1.png'
p6057
aVbox four below the northern most house
p6058
a(I4
I5
tp6059
a(I4
I5
tp6060
ag7
as(I237
I9
tp6061
(lp6062
S'237_9.png'
p6063
aVgo one above the topmost house .
p6064
a(I0
I8
tp6065
a(I0
I8
tp6066
ag7
as(I55
I6
tp6067
(lp6068
S'55_6.png'
p6069
aVreach the tree farthest to the left
p6070
a(I4
I1
tp6071
a(I4
I1
tp6072
ag7
as(I67
I3
tp6073
(lp6074
S'67_3.png'
p6075
aVmove to the westernmost tree .
p6076
a(I5
I1
tp6077
a(I5
I1
tp6078
ag7
as(I21
I3
tp6079
(lp6080
S'21_3.png'
p6081
aVgo two cells to left of easternmost horse
p6082
a(I4
I6
tp6083
a(I4
I6
tp6084
ag7
as(I206
I1
tp6085
(lp6086
S'206_1.png'
p6087
aVmove one cell to the left of the bottom most horse
p6088
a(I7
I8
tp6089
a(I7
I8
tp6090
ag7
as(I33
I0
tp6091
(lp6092
S'33_0.png'
p6093
aVgo to the tree in the middle above a house
p6094
a(I3
I5
tp6095
a(I3
I5
tp6096
ag7
as(I147
I8
tp6097
(lp6098
S'147_8.png'
p6099
aVreach one cell above most southern rock .
p6100
a(I8
I2
tp6101
a(I8
I2
tp6102
ag7
as(I15
I1
tp6103
(lp6104
S'15_1.png'
p6105
aVmove cell one up from the easternmost house
p6106
a(I0
I7
tp6107
a(I1
I7
tp6108
ag194
as(I27
I2
tp6109
(lp6110
S'27_2.png'
p6111
aVto the left of the easternmost rock
p6112
a(I3
I8
tp6113
a(I3
I8
tp6114
ag7
as(I138
I3
tp6115
(lp6116
S'138_3.png'
p6117
aVthe cell below the bottom rock
p6118
a(I9
I3
tp6119
a(I9
I3
tp6120
ag7
as(I126
I1
tp6121
(lp6122
S'126_1.png'
p6123
aVgo one down and one right of the horse
p6124
a(I1
I3
tp6125
a(I1
I3
tp6126
ag7
as(I237
I2
tp6127
(lp6128
S'237_2.png'
p6129
aVreach one to the right of the middle horse .
p6130
a(I3
I7
tp6131
a(I3
I7
tp6132
ag7
as(I249
I7
tp6133
(lp6134
S'249_7.png'
p6135
aVcell below the left most tree
p6136
a(I8
I5
tp6137
a(I8
I5
tp6138
ag7
as(I67
I8
tp6139
(lp6140
S'67_8.png'
p6141
aVmove to the square above the bottommost rock .
p6142
a(I5
I0
tp6143
a(I5
I0
tp6144
ag7
as(I18
I9
tp6145
(lp6146
S'18_9.png'
p6147
aVmove to the cell between the east rocks .
p6148
a(I4
I7
tp6149
a(I4
I7
tp6150
ag7
as(I132
I1
tp6151
(lp6152
S'132_1.png'
p6153
aVgo above the uppermost house
p6154
a(I2
I7
tp6155
a(I2
I7
tp6156
ag7
as(I206
I8
tp6157
(lp6158
S'206_8.png'
p6159
aVone cell below the top most rock
p6160
a(I3
I7
tp6161
a(I3
I7
tp6162
ag7
as(I157
I7
tp6163
(lp6164
S'157_7.png'
p6165
aVgo to the square directly above the topmost horse .
p6166
a(I2
I9
tp6167
a(I2
I9
tp6168
ag7
as(I231
I0
tp6169
(lp6170
S'231_0.png'
p6171
aVclick the northernmost horse
p6172
a(I4
I9
tp6173
a(I4
I9
tp6174
ag7
as(I144
I4
tp6175
(lp6176
S'144_4.png'
p6177
aVof the two bottom rocks , one space below the one on the left
p6178
a(I9
I4
tp6179
a(I9
I4
tp6180
ag7
as(I240
I8
tp6181
(lp6182
S'240_8.png'
p6183
aVgo to the square above the left most rock .
p6184
a(I5
I4
tp6185
a(I5
I4
tp6186
ag7
as(I243
I5
tp6187
(lp6188
S'243_5.png'
p6189
aVgo to the cell one left of the leftmost house .
p6190
a(I8
I1
tp6191
a(I8
I1
tp6192
ag7
as(I86
I6
tp6193
(lp6194
S'86_6.png'
p6195
aVgo one cell to the right of the northernmost rock
p6196
a(I2
I6
tp6197
a(I2
I6
tp6198
ag7
as(I151
I5
tp6199
(lp6200
S'151_5.png'
p6201
aVthe bottom most house
p6202
a(I8
I3
tp6203
a(I8
I3
tp6204
ag7
as(I209
I6
tp6205
(lp6206
S'209_6.png'
p6207
aVmove to the square directly above the bottom most tree
p6208
a(I6
I9
tp6209
a(I6
I9
tp6210
ag7
as(I52
I1
tp6211
(lp6212
S'52_1.png'
p6213
aVgo to topmost horse
p6214
a(I0
I0
tp6215
a(I0
I0
tp6216
ag7
as(I126
I8
tp6217
(lp6218
S'126_8.png'
p6219
aVgo in the space between two houses
p6220
a(I4
I4
tp6221
a(I4
I4
tp6222
ag7
as(I77
I7
tp6223
(lp6224
S'77_7.png'
p6225
aVleft of the easternmost house
p6226
a(I4
I6
tp6227
a(I4
I6
tp6228
ag7
as(I64
I4
tp6229
(lp6230
S'64_4.png'
p6231
aVreach the cell to the right of the highest tree
p6232
a(I0
I4
tp6233
a(I0
I4
tp6234
ag7
as(I249
I8
tp6235
(lp6236
S'249_8.png'
p6237
aVcell above the left most rock
p6238
a(I5
I0
tp6239
a(I5
I0
tp6240
ag7
as(I18
I0
tp6241
(lp6242
S'18_0.png'
p6243
aVmove to the cell to the right of the topmost rock .
p6244
a(I3
I8
tp6245
a(I3
I8
tp6246
ag7
as(I129
I3
tp6247
(lp6248
S'129_3.png'
p6249
aVreach the topmost horse
p6250
a(I1
I9
tp6251
a(I1
I9
tp6252
ag7
as(I203
I4
tp6253
(lp6254
S'203_4.png'
p6255
aVgo to the cell six west of the eastern most tree
p6256
a(I2
I2
tp6257
a(I2
I2
tp6258
ag7
as(I132
I8
tp6259
(lp6260
S'132_8.png'
p6261
aVgo above the lowest tree
p6262
a(I8
I0
tp6263
a(I8
I0
tp6264
ag7
as(I43
I8
tp6265
(lp6266
S'43_8.png'
p6267
aVgo to the cell that is one block left of the upper most tree
p6268
a(I1
I8
tp6269
a(I1
I8
tp6270
ag7
as(I117
I1
tp6271
(lp6272
S'117_1.png'
p6273
aVreach cell of the left farthest horse
p6274
a(I3
I1
tp6275
a(I3
I1
tp6276
ag7
as(I46
I7
tp6277
(lp6278
S'46_7.png'
p6279
aVgo to the cell left of the western most horse .
p6280
a(I7
I1
tp6281
a(I7
I1
tp6282
ag7
as(I157
I0
tp6283
(lp6284
S'157_0.png'
p6285
aVgo to the topmost horse .
p6286
a(I3
I9
tp6287
a(I3
I9
tp6288
ag7
as(I12
I2
tp6289
(lp6290
S'12_2.png'
p6291
aVmove 1 cell up from the rightmost house .
p6292
a(I5
I9
tp6293
a(I5
I9
tp6294
ag7
as(I24
I5
tp6295
(lp6296
S'24_5.png'
p6297
aVmove one cell left of the leftmost horse .
p6298
a(I1
I0
tp6299
a(I1
I0
tp6300
ag7
as(I151
I2
tp6301
(lp6302
S'151_2.png'
p6303
aVcell to the west of the lowest house
p6304
a(I8
I2
tp6305
a(I8
I2
tp6306
ag7
as(I49
I3
tp6307
(lp6308
S'49_3.png'
p6309
aVreach the cell one space to the left of the lowest house .
p6310
a(I9
I2
tp6311
a(I9
I2
tp6312
ag7
as(I123
I4
tp6313
(lp6314
S'123_4.png'
p6315
aVmove to the bottommost house .
p6316
a(I8
I0
tp6317
a(I8
I0
tp6318
ag7
as(I52
I8
tp6319
(lp6320
S'52_8.png'
p6321
aVsquare above the easternmost tree
p6322
a(I3
I2
tp6323
a(I0
I0
tp6324
ag194
as(I77
I0
tp6325
(lp6326
S'77_0.png'
p6327
aVmove cell to the easternmost horse
p6328
a(I6
I6
tp6329
a(I6
I6
tp6330
ag7
as(I31
I4
tp6331
(lp6332
S'31_4.png'
p6333
aVgo to cell below topmost and eastmost tree .
p6334
a(I3
I2
tp6335
a(I3
I2
tp6336
ag7
as(I89
I5
tp6337
(lp6338
S'89_5.png'
p6339
aVthe southernmost house .
p6340
a(I7
I3
tp6341
a(I7
I4
tp6342
ag194
as(I200
I0
tp6343
(lp6344
S'200_0.png'
p6345
aVgo to the rightmost horse
p6346
a(I3
I7
tp6347
a(I3
I7
tp6348
ag7
as(I129
I4
tp6349
(lp6350
S'129_4.png'
p6351
aVreach one square below the bottom-most rock .
p6352
a(I8
I9
tp6353
a(I8
I9
tp6354
ag7
as(I43
I1
tp6355
(lp6356
S'43_1.png'
p6357
aVreach the cell next to the uppermost rock
p6358
a(I0
I7
tp6359
a(I0
I7
tp6360
ag7
as(I154
I4
tp6361
(lp6362
S'154_4.png'
p6363
aVone cell left of the lowest house
p6364
a(I6
I4
tp6365
a(I6
I4
tp6366
ag7
as(I253
I5
tp6367
(lp6368
S'253_5.png'
p6369
aVmove one square right of the northernmost tree .
p6370
a(I1
I4
tp6371
a(I1
I4
tp6372
ag7
as(I240
I6
tp6373
(lp6374
S'240_6.png'
p6375
aVgo to the square below the top most horse .
p6376
a(I1
I3
tp6377
a(I1
I3
tp6378
ag7
as(I83
I7
tp6379
(lp6380
S'83_7.png'
p6381
aVgo to the cell on top of the westernmost tree .
p6382
a(I2
I0
tp6383
a(I2
I0
tp6384
ag7
as(I148
I6
tp6385
(lp6386
S'148_6.png'
p6387
aVmove to the square with the tree to the right of the uppermost horse
p6388
a(I2
I5
tp6389
a(I2
I5
tp6390
ag7
as(I120
I0
tp6391
(lp6392
S'120_0.png'
p6393
aVcell with the horse left of a house .
p6394
a(I2
I8
tp6395
a(I2
I8
tp6396
ag7
as(I247
I7
tp6397
(lp6398
S'247_7.png'
p6399
aVreach cell to the right of the upmost tree on the eastern side .
p6400
a(I0
I0
tp6401
a(I0
I9
tp6402
ag194
as(I49
I4
tp6403
(lp6404
S'49_4.png'
p6405
aVreach the cell one space to the right of the topmost horse .
p6406
a(I6
I5
tp6407
a(I6
I5
tp6408
ag7
as(I74
I4
tp6409
(lp6410
S'74_4.png'
p6411
aVreach the cell 3 above the bottom most tree
p6412
a(I6
I9
tp6413
a(I6
I9
tp6414
ag7
as(I28
I8
tp6415
(lp6416
S'28_8.png'
p6417
aVmove to cell at the left of bottom most horse
p6418
a(I9
I0
tp6419
a(I9
I0
tp6420
ag7
as(I213
I4
tp6421
(lp6422
S'213_4.png'
p6423
aVreach cell to the right of westernmost horse
p6424
a(I9
I1
tp6425
a(I9
I1
tp6426
ag7
as(I142
I0
tp6427
(lp6428
S'142_0.png'
p6429
aVreach cell to the right of the topmost tree .
p6430
a(I6
I8
tp6431
a(I0
I2
tp6432
ag194
as(I200
I7
tp6433
(lp6434
S'200_7.png'
p6435
aVgo to the horse that is farthest to the right
p6436
a(I3
I7
tp6437
a(I3
I7
tp6438
ag7
as(I43
I6
tp6439
(lp6440
S'43_6.png'
p6441
aVreach the cell that one block left of the left most tree
p6442
a(I3
I7
tp6443
a(I3
I7
tp6444
ag7
as(I68
I6
tp6445
(lp6446
S'68_6.png'
p6447
aVmove to the house that is directly south of the topmost house .
p6448
a(I8
I7
tp6449
a(I7
I7
tp6450
ag194
as(I80
I1
tp6451
(lp6452
S'80_1.png'
p6453
aVthe north most horse
p6454
a(I1
I1
tp6455
a(I1
I1
tp6456
ag7
as(I207
I6
tp6457
(lp6458
S'207_6.png'
p6459
aVplace the box around the western most tree
p6460
a(I2
I2
tp6461
a(I2
I2
tp6462
ag7
as(I34
I5
tp6463
(lp6464
S'34_5.png'
p6465
aVgo to the bottommost house
p6466
a(I9
I7
tp6467
a(I9
I7
tp6468
ag7
as(I219
I3
tp6469
(lp6470
S'219_3.png'
p6471
aVcell is one to the right of the western most horse .
p6472
a(I9
I1
tp6473
a(I9
I1
tp6474
ag7
as(I62
I0
tp6475
(lp6476
S'62_0.png'
p6477
aVreach the left house of the two houses positioned next to each other .
p6478
a(I6
I1
tp6479
a(I6
I0
tp6480
ag194
as(I120
I7
tp6481
(lp6482
S'120_7.png'
p6483
aVcell to the left of the top most house .
p6484
a(I1
I3
tp6485
a(I1
I3
tp6486
ag7
as(I210
I8
tp6487
(lp6488
S'210_8.png'
p6489
aVone square above the top rock .
p6490
a(I5
I3
tp6491
a(I5
I3
tp6492
ag7
as(I28
I7
tp6493
(lp6494
S'28_7.png'
p6495
aVmove to cell above bottom most tree
p6496
a(I3
I7
tp6497
a(I3
I7
tp6498
ag7
as(I127
I6
tp6499
(lp6500
S'127_6.png'
p6501
aVgo to the cell left of the western most tree
p6502
a(I9
I1
tp6503
a(I9
I1
tp6504
ag7
as(I40
I2
tp6505
(lp6506
S'40_2.png'
p6507
aVmove one above the rightmost rock
p6508
a(I4
I8
tp6509
a(I4
I8
tp6510
ag7
as(I250
I2
tp6511
(lp6512
S'250_2.png'
p6513
aVgo one cell above the northern most rock .
p6514
a(I1
I8
tp6515
a(I1
I8
tp6516
ag7
as(I22
I1
tp6517
(lp6518
S'22_1.png'
p6519
aVgo to the cell above the rightmost rock
p6520
a(I4
I6
tp6521
a(I4
I6
tp6522
ag7
as(I105
I0
tp6523
(lp6524
S'105_0.png'
p6525
aVmove cell to the left of the leftmost house
p6526
a(I7
I3
tp6527
a(I3
I7
tp6528
ag194
as(I13
I8
tp6529
(lp6530
S'13_8.png'
p6531
aVgo to one above bottom most tree
p6532
a(I6
I4
tp6533
a(I6
I4
tp6534
ag7
as(I210
I3
tp6535
(lp6536
S'210_3.png'
p6537
aVone square to the right of the top tree .
p6538
a(I4
I5
tp6539
a(I4
I5
tp6540
ag7
as(I139
I5
tp6541
(lp6542
S'139_5.png'
p6543
aVgo to cell with the horse
p6544
a(I8
I4
tp6545
a(I8
I4
tp6546
ag7
as(I235
I9
tp6547
(lp6548
S'235_9.png'
p6549
aVgo to the bottommost house
p6550
a(I8
I9
tp6551
a(I8
I9
tp6552
ag7
as(I238
I6
tp6553
(lp6554
S'238_6.png'
p6555
aVgo to the bottom house
p6556
a(I9
I2
tp6557
a(I9
I2
tp6558
ag7
as(I40
I9
tp6559
(lp6560
S'40_9.png'
p6561
aVtopmost rock
p6562
a(I3
I6
tp6563
a(I3
I6
tp6564
ag7
as(I65
I7
tp6565
(lp6566
S'65_7.png'
p6567
aVabove the middle most rock
p6568
a(I3
I3
tp6569
a(I4
I3
tp6570
ag194
as(I204
I1
tp6571
(lp6572
S'204_1.png'
p6573
aVmove to one space to the left of the right most horse
p6574
a(I1
I6
tp6575
a(I1
I6
tp6576
ag7
as(I229
I7
tp6577
(lp6578
S'229_7.png'
p6579
aVmove to the cell two blocks below the southernmost horse
p6580
a(I9
I0
tp6581
a(I9
I0
tp6582
ag7
as(I105
I9
tp6583
(lp6584
S'105_9.png'
p6585
aVmove cell to the bottom house
p6586
a(I9
I8
tp6587
a(I9
I8
tp6588
ag7
as(I256
I5
tp6589
(lp6590
S'256_5.png'
p6591
aVreach the cell to the right of the topmost tree
p6592
a(I4
I4
tp6593
a(I4
I4
tp6594
ag7
as(I59
I5
tp6595
(lp6596
S'59_5.png'
p6597
aVreach cell of lowest house
p6598
a(I7
I6
tp6599
a(I7
I6
tp6600
ag7
as(I13
I1
tp6601
(lp6602
S'13_1.png'
p6603
aVgo to most western horse
p6604
a(I4
I2
tp6605
a(I4
I2
tp6606
ag7
as(I223
I5
tp6607
(lp6608
S'223_5.png'
p6609
aVgo to the cell to the left of the southwestern most house .
p6610
a(I9
I0
tp6611
a(I9
I0
tp6612
ag7
as(I25
I6
tp6613
(lp6614
S'25_6.png'
p6615
aVreach cell to the left of the rock
p6616
a(I6
I7
tp6617
a(I0
I6
tp6618
ag194
as(I238
I9
tp6619
(lp6620
S'238_9.png'
p6621
aVmove to the cell to the top of the rightmost horse
p6622
a(I5
I2
tp6623
a(I5
I2
tp6624
ag7
as(I16
I9
tp6625
(lp6626
S'16_9.png'
p6627
aVgo one cell left of easternmost house .
p6628
a(I2
I6
tp6629
a(I2
I6
tp6630
ag7
as(I201
I3
tp6631
(lp6632
S'201_3.png'
p6633
aVgo to the right of the horse that is on the top
p6634
a(I0
I9
tp6635
a(I0
I8
tp6636
ag194
as(I19
I4
tp6637
(lp6638
S'19_4.png'
p6639
aVgo to cell below middle rock .
p6640
a(I5
I4
tp6641
a(I5
I4
tp6642
ag7
as(I44
I4
tp6643
(lp6644
S'44_4.png'
p6645
aVgo to the square to the left of the tree .
p6646
a(I0
I2
tp6647
a(I0
I2
tp6648
ag7
as(I229
I0
tp6649
(lp6650
S'229_0.png'
p6651
aVmove to the cell one block below the easternmost house
p6652
a(I6
I3
tp6653
a(I6
I3
tp6654
ag7
as(I241
I5
tp6655
(lp6656
S'241_5.png'
p6657
aVone square to the left of the leftmost horse .
p6658
a(I1
I2
tp6659
a(I1
I2
tp6660
ag7
as(I10
I7
tp6661
(lp6662
S'10_7.png'
p6663
aVgo to the square to the right of the left-most horse .
p6664
a(I2
I1
tp6665
a(I1
I3
tp6666
ag194
as(I84
I2
tp6667
(lp6668
S'84_2.png'
p6669
aVone block above the eastern most house
p6670
a(I6
I7
tp6671
a(I6
I7
tp6672
ag7
as(I38
I2
tp6673
(lp6674
S'38_2.png'
p6675
aVreach the square below the easternmost rock
p6676
a(I5
I9
tp6677
a(I5
I9
tp6678
ag7
as(I149
I5
tp6679
(lp6680
S'149_5.png'
p6681
aVgo to the cell to the right of the bottommost horse
p6682
a(I8
I4
tp6683
a(I8
I4
tp6684
ag7
as(I223
I2
tp6685
(lp6686
S'223_2.png'
p6687
aVgo one cell above the easternmost house
p6688
a(I3
I9
tp6689
a(I3
I9
tp6690
ag7
as(I136
I6
tp6691
(lp6692
S'136_6.png'
p6693
aVmove to cell left of leftmost house
p6694
a(I5
I1
tp6695
a(I5
I1
tp6696
ag7
as(I121
I3
tp6697
(lp6698
S'121_3.png'
p6699
aVgo to the northmost horse .
p6700
a(I2
I7
tp6701
a(I2
I7
tp6702
ag7
as(I235
I7
tp6703
(lp6704
S'235_7.png'
p6705
aVgo to the cell left of topmost house
p6706
a(I3
I1
tp6707
a(I3
I1
tp6708
ag7
as(I78
I4
tp6709
(lp6710
S'78_4.png'
p6711
aVgo east of the westernmost tree
p6712
a(I4
I1
tp6713
a(I4
I1
tp6714
ag7
as(I214
I9
tp6715
(lp6716
S'214_9.png'
p6717
aVgo to cell below the western most rock .
p6718
a(I9
I3
tp6719
a(I9
I3
tp6720
ag7
as(I16
I0
tp6721
(lp6722
S'16_0.png'
p6723
aVgo to cell of easternmost horse .
p6724
a(I3
I8
tp6725
a(I3
I8
tp6726
ag7
as(I143
I7
tp6727
(lp6728
S'143_7.png'
p6729
aVone square above the tree farthest house
p6730
a(I8
I1
tp6731
a(I8
I1
tp6732
ag7
as(I201
I4
tp6733
(lp6734
S'201_4.png'
p6735
aVmove one below the top most horse
p6736
a(I1
I8
tp6737
a(I1
I8
tp6738
ag7
as(I115
I1
tp6739
(lp6740
S'115_1.png'
p6741
aVthe topmost horse
p6742
a(I0
I4
tp6743
a(I0
I4
tp6744
ag7
as(I226
I4
tp6745
(lp6746
S'226_4.png'
p6747
aVgo to the topmost house .
p6748
a(I0
I5
tp6749
a(I0
I5
tp6750
ag7
as(I44
I3
tp6751
(lp6752
S'44_3.png'
p6753
aVgo to the square next to the house in the bottom lefthand corner
p6754
a(I8
I0
tp6755
a(I8
I2
tp6756
ag194
as(I155
I0
tp6757
(lp6758
S'155_0.png'
p6759
aVgo to the cell with the bottomost horse
p6760
a(I8
I9
tp6761
a(I8
I9
tp6762
ag7
as(I229
I9
tp6763
(lp6764
S'229_9.png'
p6765
aVmove to the cell one block below the southernmost horse
p6766
a(I8
I0
tp6767
a(I8
I0
tp6768
ag7
as(I69
I5
tp6769
(lp6770
S'69_5.png'
p6771
aVgo to cell above bottom left rock .
p6772
a(I8
I2
tp6773
a(I8
I2
tp6774
ag7
as(I56
I6
tp6775
(lp6776
S'56_6.png'
p6777
aVgo to the cell below the uppermost rock .
p6778
a(I1
I2
tp6779
a(I1
I2
tp6780
ag7
as(I23
I9
tp6781
(lp6782
S'23_9.png'
p6783
aVgo to the rock
p6784
a(I3
I3
tp6785
a(I5
I3
tp6786
ag194
as(I84
I9
tp6787
(lp6788
S'84_9.png'
p6789
aVone block above the eastern most horse
p6790
a(I8
I8
tp6791
a(I8
I8
tp6792
ag7
as(I38
I5
tp6793
(lp6794
S'38_5.png'
p6795
aVreach the square one above the horse
p6796
a(I2
I5
tp6797
a(I2
I5
tp6798
ag7
as(I63
I7
tp6799
(lp6800
S'63_7.png'
p6801
aVhouse two ( system is requiring a longer response )
p6802
a(I2
I1
tp6803
a(I2
I1
tp6804
ag7
as(I121
I4
tp6805
(lp6806
S'121_4.png'
p6807
aVgo two below the northmost horse .
p6808
a(I4
I7
tp6809
a(I4
I7
tp6810
ag7
as(I232
I1
tp6811
(lp6812
S'232_1.png'
p6813
aVreach the cell to the left of the topmost rock .
p6814
a(I1
I0
tp6815
a(I1
I0
tp6816
ag7
as(I75
I0
tp6817
(lp6818
S'75_0.png'
p6819
aVgo to the cell left of the rightmost tree .
p6820
a(I3
I7
tp6821
a(I3
I7
tp6822
ag7
as(I29
I4
tp6823
(lp6824
S'29_4.png'
p6825
aVcell underneath right most tree
p6826
a(I3
I6
tp6827
a(I3
I6
tp6828
ag7
as(I140
I9
tp6829
(lp6830
S'140_9.png'
p6831
aVgo to the cell above the easternmost horse .
p6832
a(I5
I5
tp6833
a(I5
I0
tp6834
ag194
as(I214
I0
tp6835
(lp6836
S'214_0.png'
p6837
aVgo to cell above the bottom most rock .
p6838
a(I8
I9
tp6839
a(I8
I9
tp6840
ag7
as(I16
I7
tp6841
(lp6842
S'16_7.png'
p6843
aVgo to northernmost house .
p6844
a(I0
I1
tp6845
a(I0
I1
tp6846
ag7
as(I115
I6
tp6847
(lp6848
S'115_6.png'
p6849
aVmove to the bottom house
p6850
a(I9
I6
tp6851
a(I9
I6
tp6852
ag7
as(I205
I9
tp6853
(lp6854
S'205_9.png'
p6855
aVgo to the cell of the easternmost rock .
p6856
a(I3
I8
tp6857
a(I3
I7
tp6858
ag194
as(I23
I6
tp6859
(lp6860
S'23_6.png'
p6861
aVto get the house to the horse
p6862
a(I4
I1
tp6863
a(I7
I4
tp6864
ag194
as(I10
I9
tp6865
(lp6866
S'10_9.png'
p6867
aVgo to the square two squares to the right of the left-most horse .
p6868
a(I2
I2
tp6869
a(I2
I2
tp6870
ag7
as(I35
I3
tp6871
(lp6872
S'35_3.png'
p6873
aVgo two cells above the southernmost horse
p6874
a(I2
I8
tp6875
a(I2
I8
tp6876
ag7
as(I146
I2
tp6877
(lp6878
S'146_2.png'
p6879
aVleft of the western most rock
p6880
a(I1
I0
tp6881
a(I0
I8
tp6882
ag194
as(I60
I9
tp6883
(lp6884
S'60_9.png'
p6885
aVone cell left of southmost tree
p6886
a(I4
I2
tp6887
a(I4
I2
tp6888
ag7
as(I245
I3
tp6889
(lp6890
S'245_3.png'
p6891
aVthe cell right of the house
p6892
a(I4
I1
tp6893
a(I4
I1
tp6894
ag7
as(I232
I8
tp6895
(lp6896
S'232_8.png'
p6897
aVreach the cell east of the westernmost house .
p6898
a(I2
I1
tp6899
a(I6
I1
tp6900
ag194
as(I100
I7
tp6901
(lp6902
S'100_7.png'
p6903
aVreach the cell that is below the horse
p6904
a(I8
I4
tp6905
a(I8
I4
tp6906
ag7
as(I140
I0
tp6907
(lp6908
S'140_0.png'
p6909
aVgo to the rightmost horse .
p6910
a(I6
I5
tp6911
a(I6
I5
tp6912
ag7
as(I125
I9
tp6913
(lp6914
S'125_9.png'
p6915
aVone square below the leftmost house
p6916
a(I4
I0
tp6917
a(I4
I0
tp6918
ag7
as(I112
I2
tp6919
(lp6920
S'112_2.png'
p6921
aVgo to horse to right of house
p6922
a(I5
I1
tp6923
a(I5
I1
tp6924
ag7
as(I239
I1
tp6925
(lp6926
S'239_1.png'
p6927
aVone below the topmost rock
p6928
a(I1
I7
tp6929
a(I1
I7
tp6930
ag7
as(I152
I3
tp6931
(lp6932
S'152_3.png'
p6933
aVgo to right box of most western horse
p6934
a(I8
I1
tp6935
a(I8
I1
tp6936
ag7
as(I205
I2
tp6937
(lp6938
S'205_2.png'
p6939
aVgo to the cell to the left of the topmost rock .
p6940
a(I2
I6
tp6941
a(I2
I6
tp6942
ag7
as(I134
I6
tp6943
(lp6944
S'134_6.png'
p6945
aVreach cell directly above the bottommost horse
p6946
a(I8
I4
tp6947
a(I8
I4
tp6948
ag7
as(I217
I7
tp6949
(lp6950
S'217_7.png'
p6951
aVgo to the second rock from the top
p6952
a(I4
I5
tp6953
a(I4
I5
tp6954
ag7
as(I35
I8
tp6955
(lp6956
S'35_8.png'
p6957
aVgo one cell to the left of the northmost tree
p6958
a(I2
I5
tp6959
a(I2
I5
tp6960
ag7
as(I257
I6
tp6961
(lp6962
S'257_6.png'
p6963
aVgo to cell to left of southern most tree .
p6964
a(I8
I1
tp6965
a(I8
I1
tp6966
ag7
as(I242
I9
tp6967
(lp6968
S'242_9.png'
p6969
aVdirectly above eastern most rock
p6970
a(I4
I3
tp6971
a(I4
I3
tp6972
ag7
as(I60
I0
tp6973
(lp6974
S'60_0.png'
p6975
aVone above the topmost house
p6976
a(I0
I4
tp6977
a(I0
I4
tp6978
ag7
as(I72
I3
tp6979
(lp6980
S'72_3.png'
p6981
aVone below the bottom left rock
p6982
a(I6
I1
tp6983
a(I6
I1
tp6984
ag7
as(I208
I8
tp6985
(lp6986
S'208_8.png'
p6987
aVmove above the southern most tree
p6988
a(I8
I3
tp6989
a(I8
I3
tp6990
ag7
as(I211
I5
tp6991
(lp6992
S'211_5.png'
p6993
aVmove 1 cell to the left of topmost rock
p6994
a(I0
I8
tp6995
a(I0
I8
tp6996
ag7
as(I125
I2
tp6997
(lp6998
S'125_2.png'
p6999
aVmove one square below the northernmost rock
p7000
a(I3
I6
tp7001
a(I3
I6
tp7002
ag7
as(I54
I6
tp7003
(lp7004
S'54_6.png'
p7005
aVgo one cell right of the topmost horse
p7006
a(I0
I6
tp7007
a(I0
I6
tp7008
ag7
as(I202
I6
tp7009
(lp7010
S'202_6.png'
p7011
aVgo to the left most house
p7012
a(I9
I0
tp7013
a(I9
I0
tp7014
ag7
as(I20
I1
tp7015
(lp7016
S'20_1.png'
p7017
aVgo to the cell containing the horse furthest northwest .
p7018
a(I5
I1
tp7019
a(I5
I1
tp7020
ag7
as(I45
I7
tp7021
(lp7022
S'45_7.png'
p7023
aVgo one cell to the left of the eastern most house .
p7024
a(I7
I8
tp7025
a(I7
I8
tp7026
ag7
as(I119
I0
tp7027
(lp7028
S'119_0.png'
p7029
aVgo to the cell to the right of the topmost rock .
p7030
a(I2
I9
tp7031
a(I2
I9
tp7032
ag7
as(I159
I3
tp7033
(lp7034
S'159_3.png'
p7035
aVmove to the square with the horse between two other horses .
p7036
a(I8
I2
tp7037
a(I8
I2
tp7038
ag7
as(I217
I8
tp7039
(lp7040
S'217_8.png'
p7041
aVgo to the rock closest to the top
p7042
a(I3
I5
tp7043
a(I3
I5
tp7044
ag7
as(I242
I0
tp7045
(lp7046
S'242_0.png'
p7047
aVdirectly above the bottom rock
p7048
a(I4
I3
tp7049
a(I4
I3
tp7050
ag7
as(I11
I8
tp7051
(lp7052
S'11_8.png'
p7053
aVmove to one square above the southernmost tree .
p7054
a(I5
I1
tp7055
a(I5
I1
tp7056
ag7
as(I85
I1
tp7057
(lp7058
S'85_1.png'
p7059
aVgo to the square to the right of the most eastern rock
p7060
a(I3
I9
tp7061
a(I3
I9
tp7062
ag7
as(I14
I7
tp7063
(lp7064
S'14_7.png'
p7065
aVreach cell left to the lowest most rock
p7066
a(I8
I4
tp7067
a(I8
I4
tp7068
ag7
as(I39
I5
tp7069
(lp7070
S'39_5.png'
p7071
aVmove one right to the topmost horse
p7072
a(I0
I3
tp7073
a(I0
I3
tp7074
ag7
as(I122
I6
tp7075
(lp7076
S'122_6.png'
p7077
aVcell is leftmost house
p7078
a(I5
I3
tp7079
a(I3
I5
tp7080
ag194
as(I236
I2
tp7081
(lp7082
S'236_2.png'
p7083
aVgo to the cell below the westernmost house .
p7084
a(I8
I2
tp7085
a(I7
I8
tp7086
ag194
as(I248
I5
tp7087
(lp7088
S'248_5.png'
p7089
aVgo to the bottom-most house .
p7090
a(I5
I7
tp7091
a(I5
I7
tp7092
ag7
as(I17
I3
tp7093
(lp7094
S'17_3.png'
p7095
aVthe cell above the topmost house
p7096
a(I0
I8
tp7097
a(I2
I7
tp7098
ag194
as(I202
I1
tp7099
(lp7100
S'202_1.png'
p7101
aVgo to the square above the top right most house
p7102
a(I1
I4
tp7103
a(I1
I4
tp7104
ag7
as(I20
I8
tp7105
(lp7106
S'20_8.png'
p7107
aVgo to the house furthest west .
p7108
a(I6
I2
tp7109
a(I8
I7
tp7110
ag194
as(I116
I4
tp7111
(lp7112
S'116_4.png'
p7113
aVthe image does n't come in
p7114
as(I45
I0
tp7115
(lp7116
S'45_0.png'
p7117
aVgo to the topmost horse .
p7118
a(I0
I4
tp7119
a(I0
I4
tp7120
ag7
as(I230
I4
tp7121
(lp7122
S'230_4.png'
p7123
aVmove to the square to the left of the southernmost house
p7124
a(I8
I0
tp7125
a(I8
I0
tp7126
ag7
as(I159
I8
tp7127
(lp7128
S'159_8.png'
p7129
aVmove to the square to the left of the easternmost horse .
p7130
a(I8
I0
tp7131
a(I7
I3
tp7132
ag194
as(I57
I5
tp7133
(lp7134
S'57_5.png'
p7135
aVmove to the spot to the left of the topmost house
p7136
a(I8
I5
tp7137
a(I8
I5
tp7138
ag7
as(I82
I7
tp7139
(lp7140
S'82_7.png'
p7141
aVmove to the westernmost tree .
p7142
a(I3
I4
tp7143
a(I3
I4
tp7144
ag7
as(I11
I1
tp7145
(lp7146
S'11_1.png'
p7147
aVmove to the northernmost horse .
p7148
a(I0
I3
tp7149
a(I0
I3
tp7150
ag7
as(I110
I2
tp7151
(lp7152
S'110_2.png'
p7153
aVthe left most tree
p7154
a(I3
I5
tp7155
a(I3
I5
tp7156
ag7
as(I221
I5
tp7157
(lp7158
S'221_5.png'
p7159
aVgo to the cell that is above the northest house
p7160
a(I1
I5
tp7161
a(I1
I5
tp7162
ag7
as(I39
I2
tp7163
(lp7164
S'39_2.png'
p7165
aVmove to the topmost horse
p7166
a(I0
I2
tp7167
a(I0
I2
tp7168
ag7
as(I208
I6
tp7169
(lp7170
S'208_6.png'
p7171
aVmove to the western most house
p7172
a(I5
I3
tp7173
a(I5
I3
tp7174
ag7
as(I122
I1
tp7175
(lp7176
S'122_1.png'
p7177
aVcell is left to bottommost house
p7178
a(I5
I2
tp7179
a(I5
I2
tp7180
ag7
as(I233
I2
tp7181
(lp7182
S'233_2.png'
p7183
aVthe bottommost horse
p7184
a(I7
I4
tp7185
a(I7
I4
tp7186
ag7
as(I51
I7
tp7187
(lp7188
S'51_7.png'
p7189
aVgo to the call directly above the westernmost rock .
p7190
a(I4
I3
tp7191
a(I4
I3
tp7192
ag7
as(I76
I5
tp7193
(lp7194
S'76_5.png'
p7195
aVgo to the cell which is immediately right of the topmost tree .
p7196
a(I2
I1
tp7197
a(I2
I1
tp7198
ag7
as(I88
I0
tp7199
(lp7200
S'88_0.png'
p7201
aVmove one to the right of the southernmost rock
p7202
a(I7
I7
tp7203
a(I7
I7
tp7204
ag7
as(I17
I4
tp7205
(lp7206
S'17_4.png'
p7207
aVthe cell to the left of the eastmost house
p7208
a(I5
I6
tp7209
a(I5
I6
tp7210
ag7
as(I128
I1
tp7211
(lp7212
S'128_1.png'
p7213
aVmove to the cell of the lowest horse
p7214
a(I9
I1
tp7215
a(I9
I1
tp7216
ag7
as(I202
I8
tp7217
(lp7218
S'202_8.png'
p7219
aVgo to the top left most house
p7220
a(I2
I3
tp7221
a(I2
I3
tp7222
ag7
as(I113
I8
tp7223
(lp7224
S'113_8.png'
p7225
aVmove one cell left from the eastern most house
p7226
a(I8
I8
tp7227
a(I8
I8
tp7228
ag7
as(I116
I3
tp7229
(lp7230
S'116_3.png'
p7231
aVno image is shown
p7232
as(I227
I0
tp7233
(lp7234
S'227_0.png'
p7235
aVmove to the top most rock
p7236
a(I0
I2
tp7237
a(I0
I2
tp7238
ag7
as(I135
I8
tp7239
(lp7240
S'135_8.png'
p7241
aVgo to the bottom most rock .
p7242
a(I3
I7
tp7243
a(I3
I7
tp7244
ag7
as(I11
I6
tp7245
(lp7246
S'11_6.png'
p7247
aVmove to one square above the northeasternmost horse
p7248
a(I0
I7
tp7249
a(I0
I7
tp7250
ag7
as(I36
I6
tp7251
(lp7252
S'36_6.png'
p7253
aVgo one above the easternmost horse
p7254
a(I2
I9
tp7255
a(I3
I9
tp7256
ag194
as(I110
I5
tp7257
(lp7258
S'110_5.png'
p7259
aVcell to the bottom of the uppermost horse
p7260
a(I4
I3
tp7261
a(I4
I3
tp7262
ag7
as(I258
I8
tp7263
(lp7264
S'258_8.png'
p7265
aVthe tree to the left of the bottom house
p7266
a(I8
I0
tp7267
a(I8
I0
tp7268
ag7
as(I48
I1
tp7269
(lp7270
S'48_1.png'
p7271
aVgo to the cell one above the topmost rock .
p7272
a(I3
I8
tp7273
a(I8
I3
tp7274
ag194
as(I122
I8
tp7275
(lp7276
S'122_8.png'
p7277
aVcell is one cell below topright house
p7278
a(I1
I9
tp7279
a(I1
I9
tp7280
ag7
as(I30
I0
tp7281
(lp7282
S'30_0.png'
p7283
aVmove to the cell directly above the northernmost tree .
p7284
a(I0
I0
tp7285
a(I0
I0
tp7286
ag7
as(I88
I7
tp7287
(lp7288
S'88_7.png'
p7289
aVselect the westernmost topmost rock
p7290
a(I0
I2
tp7291
a(I0
I2
tp7292
ag7
as(I141
I3
tp7293
(lp7294
S'141_3.png'
p7295
aVmove to topmost horse
p7296
a(I0
I4
tp7297
a(I0
I4
tp7298
ag7
as(I55
I8
tp7299
(lp7300
S'55_8.png'
p7301
aVreach the square to the left of the topmost tree
p7302
a(I1
I5
tp7303
a(I1
I5
tp7304
ag7
as(I113
I1
tp7305
(lp7306
S'113_1.png'
p7307
aVmove one cell to the left of the topmost rock
p7308
a(I3
I6
tp7309
a(I3
I6
tp7310
ag7
as(I153
I0
tp7311
(lp7312
S'153_0.png'
p7313
aVreach the cell above the northwest most tree
p7314
a(I4
I3
tp7315
a(I4
I3
tp7316
ag7
as(I227
I9
tp7317
(lp7318
S'227_9.png'
p7319
aVgo to the bottom most tree
p7320
a(I8
I1
tp7321
a(I8
I1
tp7322
ag7
as(I135
I1
tp7323
(lp7324
S'135_1.png'
p7325
aVgo to the right most tree .
p7326
a(I7
I9
tp7327
a(I7
I9
tp7328
ag7
as(I107
I3
tp7329
(lp7330
S'107_3.png'
p7331
aVgo to the cell of the right of the upper most hourse
p7332
a(I1
I7
tp7333
a(I1
I7
tp7334
ag7
as(I218
I2
tp7335
(lp7336
S'218_2.png'
p7337
aVmove to topmost tree
p7338
a(I0
I3
tp7339
a(I0
I3
tp7340
ag7
as(I147
I2
tp7341
(lp7342
S'147_2.png'
p7343
aVgo to most eastern horse .
p7344
a(I1
I6
tp7345
a(I1
I6
tp7346
ag7
as(I258
I3
tp7347
(lp7348
S'258_3.png'
p7349
aVthe tree to the left of the horse
p7350
a(I3
I0
tp7351
a(I3
I0
tp7352
ag7
as(I246
I1
tp7353
(lp7354
S'246_1.png'
p7355
aVreach one cell above easternmost house .
p7356
a(I0
I4
tp7357
a(I3
I2
tp7358
ag194
as(I73
I0
tp7359
(lp7360
S'73_0.png'
p7361
aVbox one below and one left of eastermost horse
p7362
a(I5
I6
tp7363
a(I5
I6
tp7364
ag7
as(I237
I8
tp7365
(lp7366
S'237_8.png'
p7367
aVgo to the leftmost house .
p7368
a(I4
I1
tp7369
a(I4
I1
tp7370
ag7
as(I55
I1
tp7371
(lp7372
S'55_1.png'
p7373
aVreach the square to the left of the topmost tree .
p7374
a(I1
I5
tp7375
a(I1
I5
tp7376
ag7
as(I153
I9
tp7377
(lp7378
S'153_9.png'
p7379
aVthe tree three to the right of the westmost horse
p7380
a(I6
I3
tp7381
a(I6
I3
tp7382
ag7
as(I67
I2
tp7383
(lp7384
S'67_2.png'
p7385
aVmove to the square to the left of the house closest to the bottom left corner .
p7386
a(I7
I1
tp7387
a(I7
I1
tp7388
ag7
as(I203
I9
tp7389
(lp7390
S'203_9.png'
p7391
aVchoose the cell above the bottom most horse
p7392
a(I7
I8
tp7393
a(I7
I8
tp7394
ag7
as(I21
I2
tp7395
(lp7396
S'21_2.png'
p7397
aVgo to cell below topmost house
p7398
a(I1
I4
tp7399
a(I1
I4
tp7400
ag7
as(I206
I6
tp7401
(lp7402
S'206_6.png'
p7403
aVone cell right of the topmost rock
p7404
a(I2
I8
tp7405
a(I2
I8
tp7406
ag7
as(I33
I7
tp7407
(lp7408
S'33_7.png'
p7409
aVreach the tree two below the right top house
p7410
a(I2
I9
tp7411
a(I2
I9
tp7412
ag7
as(I15
I0
tp7413
(lp7414
S'15_0.png'
p7415
aVmove cell one square right to the topmost tree
p7416
a(I0
I4
tp7417
a(I0
I4
tp7418
ag7
as(I73
I9
tp7419
(lp7420
S'73_9.png'
p7421
aVbox around the rock one below the northernmost rock
p7422
a(I6
I5
tp7423
a(I6
I5
tp7424
ag7
as(I27
I5
tp7425
(lp7426
S'27_5.png'
p7427
aVthe southernmost tree
p7428
a(I9
I6
tp7429
a(I9
I6
tp7430
ag7
as(I138
I0
tp7431
(lp7432
S'138_0.png'
p7433
aVgo to the bottom-right horse
p7434
a(I9
I6
tp7435
a(I9
I6
tp7436
ag7
as(I123
I9
tp7437
(lp7438
S'123_9.png'
p7439
aVmove one square below the topmost house .
p7440
a(I3
I5
tp7441
a(I3
I5
tp7442
ag7
as(I126
I6
tp7443
(lp7444
S'126_6.png'
p7445
aVgo three down from the horse
p7446
a(I3
I2
tp7447
a(I3
I2
tp7448
ag7
as(I237
I1
tp7449
(lp7450
S'237_1.png'
p7451
aVreach the upmost horse .
p7452
a(I1
I8
tp7453
a(I1
I8
tp7454
ag7
as(I249
I6
tp7455
(lp7456
S'249_6.png'
p7457
aVgo to the left most tree
p7458
a(I7
I5
tp7459
a(I7
I5
tp7460
ag7
as(I18
I6
tp7461
(lp7462
S'18_6.png'
p7463
aVmove to the most northwest tree .
p7464
a(I7
I1
tp7465
a(I7
I1
tp7466
ag7
as(I129
I9
tp7467
(lp7468
S'129_9.png'
p7469
aVreach one square above the topmost horse .
p7470
a(I0
I9
tp7471
a(I0
I9
tp7472
ag7
as(I132
I2
tp7473
(lp7474
S'132_2.png'
p7475
aVgo left of the lowest house
p7476
a(I9
I5
tp7477
a(I9
I5
tp7478
ag7
as(I206
I9
tp7479
(lp7480
S'206_9.png'
p7481
aVmove to the top most rock
p7482
a(I2
I7
tp7483
a(I2
I7
tp7484
ag7
as(I117
I7
tp7485
(lp7486
S'117_7.png'
p7487
aVgo one cell left from the topmost tree
p7488
a(I1
I6
tp7489
a(I1
I6
tp7490
ag7
as(I157
I6
tp7491
(lp7492
S'157_6.png'
p7493
aVgo to the square directly to the right of the bottommost horse .
p7494
a(I6
I5
tp7495
a(I6
I5
tp7496
ag7
as(I231
I3
tp7497
(lp7498
S'231_3.png'
p7499
aVclick to the right of the westermost horse
p7500
a(I6
I8
tp7501
a(I6
I7
tp7502
ag194
as(I144
I5
tp7503
(lp7504
S'144_5.png'
p7505
aVthe only house
p7506
a(I2
I1
tp7507
a(I4
I1
tp7508
ag194
as(I240
I9
tp7509
(lp7510
S'240_9.png'
p7511
aVgo the square above the horse that is immediately above a rock .
p7512
a(I1
I7
tp7513
a(I1
I7
tp7514
ag7
as(I243
I4
tp7515
(lp7516
S'243_4.png'
p7517
aVselect the cell one above the highest-up house .
p7518
a(I1
I6
tp7519
a(I1
I6
tp7520
ag7
as(I12
I4
tp7521
(lp7522
S'12_4.png'
p7523
aVmove 1 cell right of the leftmost horse .
p7524
a(I2
I3
tp7525
a(I2
I3
tp7526
ag7
as(I86
I7
tp7527
(lp7528
S'86_7.png'
p7529
aVgo one cell to the left of the southernmost rock
p7530
a(I5
I6
tp7531
a(I5
I6
tp7532
ag7
as(I15
I9
tp7533
(lp7534
S'15_9.png'
p7535
aVmove cell one square above the easternmost tree
p7536
a(I7
I8
tp7537
a(I7
I8
tp7538
ag7
as(I151
I4
tp7539
(lp7540
S'151_4.png'
p7541
aVcell to the left of the bottom house
p7542
a(I8
I2
tp7543
a(I8
I2
tp7544
ag7
as(I209
I5
tp7545
(lp7546
S'209_5.png'
p7547
aVmove to the square of the bottom horse
p7548
a(I2
I1
tp7549
a(I2
I1
tp7550
ag7
as(I49
I9
tp7551
(lp7552
S'49_9.png'
p7553
aVreach the cell one space above the easternmost horse .
p7554
a(I6
I6
tp7555
a(I6
I6
tp7556
ag7
as(I52
I2
tp7557
(lp7558
S'52_2.png'
p7559
aVgo to westernmost tree
p7560
a(I4
I2
tp7561
a(I4
I2
tp7562
ag7
as(I126
I9
tp7563
(lp7564
S'126_9.png'
p7565
aVgo one above the rock that is near the house
p7566
a(I2
I5
tp7567
a(I2
I5
tp7568
ag7
as(I77
I6
tp7569
(lp7570
S'77_6.png'
p7571
aVbottom most house
p7572
a(I8
I4
tp7573
a(I8
I4
tp7574
ag7
as(I64
I5
tp7575
(lp7576
S'64_5.png'
p7577
aVhighlight the most west tree
p7578
a(I1
I0
tp7579
a(I1
I0
tp7580
ag7
as(I89
I3
tp7581
(lp7582
S'89_3.png'
p7583
aVthe northernmost tree .
p7584
a(I2
I0
tp7585
a(I2
I0
tp7586
ag7
as(I18
I1
tp7587
(lp7588
S'18_1.png'
p7589
aVmove to the cell above the topmost rock .
p7590
a(I2
I7
tp7591
a(I2
I7
tp7592
ag7
as(I129
I2
tp7593
(lp7594
S'129_2.png'
p7595
aVreach one square left of the topmost rock .
p7596
a(I3
I5
tp7597
a(I3
I5
tp7598
ag7
as(I203
I7
tp7599
(lp7600
S'203_7.png'
p7601
aVchoose the cell one above the top horse in the two horse column
p7602
a(I2
I2
tp7603
a(I2
I2
tp7604
ag7
as(I132
I9
tp7605
(lp7606
S'132_9.png'
p7607
aVgo below the highest house
p7608
a(I4
I7
tp7609
a(I4
I7
tp7610
ag7
as(I117
I0
tp7611
(lp7612
S'117_0.png'
p7613
aVreach cell of the farthest right horse
p7614
a(I4
I9
tp7615
a(I4
I9
tp7616
ag7
as(I46
I4
tp7617
(lp7618
S'46_4.png'
p7619
aVgo to the cell beneath the horse that is in the middle of the western most and eastern most horses .
p7620
a(I7
I3
tp7621
a(I7
I3
tp7622
ag7
as(I240
I0
tp7623
(lp7624
S'240_0.png'
p7625
aVgo to the horse second from the bottom most horse
p7626
a(I2
I7
tp7627
a(I2
I7
tp7628
ag7
as(I83
I1
tp7629
(lp7630
S'83_1.png'
p7631
aVgo to the topmost horse .
p7632
a(I2
I2
tp7633
a(I2
I2
tp7634
ag7
as(I12
I3
tp7635
(lp7636
S'12_3.png'
p7637
aVmove one cell left from the rightmost house .
p7638
a(I6
I8
tp7639
a(I6
I8
tp7640
ag7
as(I24
I6
tp7641
(lp7642
S'24_6.png'
p7643
aVmove one cell right of the left topmost horse .
p7644
a(I0
I4
tp7645
a(I0
I4
tp7646
ag7
as(I247
I9
tp7647
(lp7648
S'247_9.png'
p7649
aVreach cell right below the lowest tree .
p7650
a(I6
I9
tp7651
a(I6
I9
tp7652
ag7
as(I49
I2
tp7653
(lp7654
S'49_2.png'
p7655
aVreach the cell with the easternmost horse .
p7656
a(I7
I6
tp7657
a(I7
I6
tp7658
ag7
as(I123
I7
tp7659
(lp7660
S'123_7.png'
p7661
aVmove to the topmost rock .
p7662
a(I2
I6
tp7663
a(I2
I6
tp7664
ag7
as(I52
I9
tp7665
(lp7666
S'52_9.png'
p7667
aVsquare to the right of the northernmost tree
p7668
a(I0
I6
tp7669
a(I0
I6
tp7670
ag7
as(I31
I7
tp7671
(lp7672
S'31_7.png'
p7673
aVgo to cell below topmost and leftmost rock .
p7674
a(I4
I2
tp7675
a(I4
I2
tp7676
ag7
as(I89
I4
tp7677
(lp7678
S'89_4.png'
p7679
aVthe leftmost house .
p7680
a(I5
I0
tp7681
a(I5
I0
tp7682
ag7
as(I200
I1
tp7683
(lp7684
S'200_1.png'
p7685
aVgo to the space above the most east rock
p7686
a(I2
I8
tp7687
a(I2
I8
tp7688
ag7
as(I43
I0
tp7689
(lp7690
S'43_0.png'
p7691
aVreach cell above the highest tree
p7692
a(I0
I9
tp7693
a(I0
I9
tp7694
ag7
as(I117
I9
tp7695
(lp7696
S'117_9.png'
p7697
aVgo one cell left from the leftmost horse
p7698
a(I3
I0
tp7699
a(I3
I0
tp7700
ag7
as(I154
I5
tp7701
(lp7702
S'154_5.png'
p7703
aVselect the most western tree
p7704
a(I9
I3
tp7705
a(I9
I3
tp7706
ag7
as(I253
I4
tp7707
(lp7708
S'253_4.png'
p7709
aVmove on square above the horse .
p7710
a(I8
I6
tp7711
a(I8
I6
tp7712
ag7
as(I240
I7
tp7713
(lp7714
S'240_7.png'
p7715
aVgo to the square above the bottom most rock .
p7716
a(I7
I6
tp7717
a(I7
I6
tp7718
ag7
as(I83
I6
tp7719
(lp7720
S'83_6.png'
p7721
aVgo to the cell on top of the easternmost horse .
p7722
a(I3
I5
tp7723
a(I3
I5
tp7724
ag7
as(I148
I7
tp7725
(lp7726
S'148_7.png'
p7727
aVmove to the square to the left of the bottommost tree
p7728
a(I9
I5
tp7729
a(I9
I5
tp7730
ag7
as(I120
I1
tp7731
(lp7732
S'120_1.png'
p7733
aVcell above both a rock and horse .
p7734
a(I4
I7
tp7735
a(I4
I7
tp7736
ag7
as(I247
I6
tp7737
(lp7738
S'247_6.png'
p7739
aVreach cell to the tree on the lowest point .
p7740
a(I5
I9
tp7741
a(I5
I9
tp7742
ag7
as(I74
I5
tp7743
(lp7744
S'74_5.png'
p7745
aVreach the cell to the right of the topmost tree
p7746
a(I1
I7
tp7747
a(I1
I7
tp7748
ag7
as(I28
I9
tp7749
(lp7750
S'28_9.png'
p7751
aVmove to cell at the furthest point of topright
p7752
a(I0
I9
tp7753
a(I0
I9
tp7754
ag7
as(I213
I3
tp7755
(lp7756
S'213_3.png'
p7757
aVreach cell to the left of eastermost house
p7758
a(I9
I8
tp7759
a(I9
I8
tp7760
ag7
as(I142
I1
tp7761
(lp7762
S'142_1.png'
p7763
aVcell above the most eastern house
p7764
a(I7
I3
tp7765
a(I7
I3
tp7766
ag7
as(I200
I8
tp7767
(lp7768
S'200_8.png'
p7769
aVgo to the space above the top rock
p7770
a(I0
I6
tp7771
a(I0
I6
tp7772
ag7
as(I68
I7
tp7773
(lp7774
S'68_7.png'
p7775
aVmove to the square to the west of the easternmost house .
p7776
a(I8
I8
tp7777
a(I8
I8
tp7778
ag7
as(I80
I2
tp7779
(lp7780
S'80_2.png'
p7781
aVcell directly above two houses in a row
p7782
a(I1
I0
tp7783
a(I1
I0
tp7784
ag7
as(I207
I1
tp7785
(lp7786
S'207_1.png'
p7787
aVplace the red box on the horse above the rock that is to the left of a tree
p7788
a(I2
I5
tp7789
a(I2
I5
tp7790
ag7
as(I34
I2
tp7791
(lp7792
S'34_2.png'
p7793
aVgo to square to left of bottom house
p7794
a(I9
I6
tp7795
a(I9
I6
tp7796
ag7
as(I219
I2
tp7797
(lp7798
S'219_2.png'
p7799
aVcell is one to the right and one below the bottom most rock .
p7800
a(I8
I2
tp7801
a(I9
I4
tp7802
ag194
as(I256
I8
tp7803
(lp7804
S'256_8.png'
p7805
aVreach the cell to the bottom of the topmost horse
p7806
a(I4
I6
tp7807
a(I4
I6
tp7808
ag7
as(I62
I1
tp7809
(lp7810
S'62_1.png'
p7811
aVreach the cell below the house farthest to the left .
p7812
a(I7
I0
tp7813
a(I7
I0
tp7814
ag7
as(I120
I8
tp7815
(lp7816
S'120_8.png'
p7817
aVbottom most house cell
p7818
a(I8
I8
tp7819
a(I8
I8
tp7820
ag7
as(I210
I9
tp7821
(lp7822
S'210_9.png'
p7823
aVone square above the bottom tree .
p7824
a(I8
I5
tp7825
a(I8
I5
tp7826
ag7
as(I28
I0
tp7827
(lp7828
S'28_0.png'
p7829
aVmove to topmost horse
p7830
a(I0
I4
tp7831
a(I0
I4
tp7832
ag7
as(I142
I8
tp7833
(lp7834
S'142_8.png'
p7835
aVcell above the bottom most tree .
p7836
a(I8
I5
tp7837
a(I8
I5
tp7838
ag7
as(I127
I1
tp7839
(lp7840
S'127_1.png'
p7841
aVgo to the cell of the northern most house
p7842
a(I6
I8
tp7843
a(I6
I8
tp7844
ag7
as(I40
I3
tp7845
(lp7846
S'40_3.png'
p7847
aVmove one left of the leftmost rock
p7848
a(I3
I5
tp7849
a(I3
I5
tp7850
ag7
as(I250
I3
tp7851
(lp7852
S'250_3.png'
p7853
aVgo one cell left of the eastern most rock .
p7854
a(I2
I7
tp7855
a(I2
I7
tp7856
ag7
as(I22
I6
tp7857
(lp7858
S'22_6.png'
p7859
aVgo to the topmost tree
p7860
a(I0
I0
tp7861
a(I0
I0
tp7862
ag7
as(I105
I7
tp7863
(lp7864
S'105_7.png'
p7865
aVmove cell to the bottom right corner
p7866
a(I9
I9
tp7867
a(I9
I9
tp7868
ag7
as(I62
I8
tp7869
(lp7870
S'62_8.png'
p7871
aVgo to the cell directly above the southernmost house .
p7872
a(I8
I9
tp7873
a(I8
I9
tp7874
ag7
as(I13
I7
tp7875
(lp7876
S'13_7.png'
p7877
aVgo to one left of bottom most tree
p7878
a(I7
I3
tp7879
a(I7
I3
tp7880
ag7
as(I210
I0
tp7881
(lp7882
S'210_0.png'
p7883
aVtwo squares below the top tree .
p7884
a(I6
I4
tp7885
a(I6
I4
tp7886
ag7
as(I139
I4
tp7887
(lp7888
S'139_4.png'
p7889
aVgo to cell above the house on bottom
p7890
a(I7
I5
tp7891
a(I7
I5
tp7892
ag7
as(I235
I8
tp7893
(lp7894
S'235_8.png'
p7895
aVgo to the topmost house
p7896
a(I3
I2
tp7897
a(I3
I2
tp7898
ag7
as(I238
I7
tp7899
(lp7900
S'238_7.png'
p7901
aVgo to the bottom horse
p7902
a(I9
I1
tp7903
a(I9
I1
tp7904
ag7
as(I65
I6
tp7905
(lp7906
S'65_6.png'
p7907
aVgo to the bottom most tree
p7908
a(I8
I3
tp7909
a(I8
I3
tp7910
ag7
as(I204
I2
tp7911
(lp7912
S'204_2.png'
p7913
aVmove to the left most horse
p7914
a(I3
I2
tp7915
a(I3
I2
tp7916
ag7
as(I229
I6
tp7917
(lp7918
S'229_6.png'
p7919
aVmove to the cell two blocks below the westernmost horse
p7920
a(I9
I0
tp7921
a(I9
I0
tp7922
ag7
as(I105
I8
tp7923
(lp7924
S'105_8.png'
p7925
aVmove cell to the left most house
p7926
a(I7
I4
tp7927
a(I7
I4
tp7928
ag7
as(I256
I6
tp7929
(lp7930
S'256_6.png'
p7931
aVreach the cell to the right of the topmost horse
p7932
a(I3
I7
tp7933
a(I3
I7
tp7934
ag7
as(I241
I3
tp7935
(lp7936
S'241_3.png'
p7937
aVthe topmost horse .
p7938
a(I0
I8
tp7939
a(I0
I8
tp7940
ag7
as(I59
I4
tp7941
(lp7942
S'59_4.png'
p7943
aVreach cell to the left of lowest house .
p7944
a(I7
I5
tp7945
a(I7
I5
tp7946
ag7
as(I84
I4
tp7947
(lp7948
S'84_4.png'
p7949
aVone block below the bottom left house
p7950
a(I8
I2
tp7951
a(I8
I2
tp7952
ag7
as(I13
I0
tp7953
(lp7954
S'13_0.png'
p7955
aVgo to block one down of house
p7956
a(I4
I9
tp7957
a(I4
I9
tp7958
ag7
as(I38
I8
tp7959
(lp7960
S'38_8.png'
p7961
aVreach the square above the westernmost rock
p7962
a(I7
I1
tp7963
a(I7
I1
tp7964
ag7
as(I223
I4
tp7965
(lp7966
S'223_4.png'
p7967
aVgo to the cell to the right of the bottommost horse
p7968
a(I9
I4
tp7969
a(I9
I4
tp7970
ag7
as(I25
I5
tp7971
(lp7972
S'25_5.png'
p7973
aVreach cell to the upmost rock to the right
p7974
a(I0
I8
tp7975
a(I0
I9
tp7976
ag194
as(I136
I0
tp7977
(lp7978
S'136_0.png'
p7979
aVmove to cell directly above rightmost rock
p7980
a(I3
I9
tp7981
a(I3
I9
tp7982
ag7
as(I235
I1
tp7983
(lp7984
S'235_1.png'
p7985
aVgo to the cell below the bottommost house
p7986
a(I9
I9
tp7987
a(I9
I9
tp7988
ag7
as(I78
I2
tp7989
(lp7990
S'78_2.png'
p7991
aVgo to the westernmost tree .
p7992
a(I4
I0
tp7993
a(I4
I0
tp7994
ag7
as(I201
I2
tp7995
(lp7996
S'201_2.png'
p7997
aVgo to the tree most left
p7998
a(I7
I6
tp7999
a(I7
I6
tp8000
ag7
as(I19
I7
tp8001
(lp8002
S'19_7.png'
p8003
aVgo to cell below the rightmost rock .
p8004
a(I5
I6
tp8005
a(I4
I6
tp8006
ag194
as(I44
I5
tp8007
(lp8008
S'44_5.png'
p8009
aVgo to the westernmost house
p8010
a(I5
I0
tp8011
a(I5
I0
tp8012
ag7
as(I56
I0
tp8013
(lp8014
S'56_0.png'
p8015
aVgo to cell above the last rock at the bottom .
p8016
a(I5
I8
tp8017
a(I5
I8
tp8018
ag7
as(I241
I4
tp8019
(lp8020
S'241_4.png'
p8021
aVthe square above the topmost horse .
p8022
a(I0
I3
tp8023
a(I-1
I8
tp8024
ag194
as(I10
I4
tp8025
(lp8026
S'10_4.png'
p8027
aVgo to the square right above the left most horse .
p8028
a(I1
I0
tp8029
a(I1
I0
tp8030
ag7
as(I84
I3
tp8031
(lp8032
S'84_3.png'
p8033
aVone block above the bottom left horse
p8034
a(I7
I1
tp8035
a(I7
I1
tp8036
ag7
as(I38
I3
tp8037
(lp8038
S'38_3.png'
p8039
aVreach the square below the westernmost rock
p8040
a(I9
I1
tp8041
a(I9
I1
tp8042
ag7
as(I149
I4
tp8043
(lp8044
S'149_4.png'
p8045
aVgo to the leftmost tree
p8046
a(I6
I3
tp8047
a(I6
I3
tp8048
ag7
as(I136
I7
tp8049
(lp8050
S'136_7.png'
p8051
aVmove to bottom most house .
p8052
a(I9
I4
tp8053
a(I9
I4
tp8054
ag7
as(I121
I2
tp8055
(lp8056
S'121_2.png'
p8057
aVgo to the northmost tree .
p8058
a(I2
I3
tp8059
a(I2
I3
tp8060
ag7
as(I235
I6
tp8061
(lp8062
S'235_6.png'
p8063
aVgo to the cell left of the topmost house
p8064
a(I3
I1
tp8065
a(I3
I1
tp8066
ag7
as(I78
I5
tp8067
(lp8068
S'78_5.png'
p8069
aVgo south of the northernmost horse
p8070
a(I3
I3
tp8071
a(I3
I3
tp8072
ag7
as(I16
I1
tp8073
(lp8074
S'16_1.png'
p8075
aVgo to cell of northernmost horse .
p8076
a(I2
I2
tp8077
a(I2
I2
tp8078
ag7
as(I143
I6
tp8079
(lp8080
S'143_6.png'
p8081
aVone square to the right of the rock
p8082
a(I2
I8
tp8083
a(I2
I8
tp8084
ag7
as(I115
I0
tp8085
(lp8086
S'115_0.png'
p8087
aVmove to the topmost horse
p8088
a(I0
I4
tp8089
a(I0
I4
tp8090
ag7
as(I226
I5
tp8091
(lp8092
S'226_5.png'
p8093
aVgo to the cell to the left of the bottommost house .
p8094
a(I9
I0
tp8095
a(I9
I0
tp8096
ag7
as(I155
I3
tp8097
(lp8098
S'155_3.png'
p8099
aVmove to the topmost horse
p8100
a(I2
I0
tp8101
a(I2
I0
tp8102
ag7
as(I229
I8
tp8103
(lp8104
S'229_8.png'
p8105
aVmove to the cell one block to the left of the easternmost house
p8106
a(I5
I2
tp8107
a(I5
I2
tp8108
ag7
as(I69
I4
tp8109
(lp8110
S'69_4.png'
p8111
aVgo to cell below topmost horse .
p8112
a(I1
I9
tp8113
a(I1
I9
tp8114
ag7
as(I56
I7
tp8115
(lp8116
S'56_7.png'
p8117
aVgo to the rightmost house
p8118
a(I4
I7
tp8119
a(I4
I7
tp8120
ag7
as(I23
I8
tp8121
(lp8122
S'23_8.png'
p8123
aVthe horse and the rock
p8124
a(I3
I3
tp8125
a(I7
I6
tp8126
ag194
as(I146
I8
tp8127
(lp8128
S'146_8.png'
p8129
aVabove the left most rock
p8130
a(I7
I0
tp8131
a(I9
I8
tp8132
ag194
as(I63
I6
tp8133
(lp8134
S'63_6.png'
p8135
aVto the left of house 3
p8136
a(I7
I7
tp8137
a(I7
I7
tp8138
ag7
as(I232
I2
tp8139
(lp8140
S'232_2.png'
p8141
aVreach the cell below the topmost rock .
p8142
a(I2
I1
tp8143
a(I2
I1
tp8144
ag7
as(I75
I3
tp8145
(lp8146
S'75_3.png'
p8147
aVgo to the cell below the eaternmost tree .
p8148
a(I4
I8
tp8149
a(I4
I8
tp8150
ag7
as(I29
I3
tp8151
(lp8152
S'29_3.png'
p8153
aVgo to cell underneath lower most rock
p8154
a(I9
I1
tp8155
a(I9
I1
tp8156
ag7
as(I214
I1
tp8157
(lp8158
S'214_1.png'
p8159
aVgo to cell to the left of the most northern rock .
p8160
a(I7
I5
tp8161
a(I7
I5
tp8162
ag7
as(I115
I9
tp8163
(lp8164
S'115_9.png'
p8165
aVmove one below the most eastern house
p8166
a(I4
I9
tp8167
a(I4
I9
tp8168
ag7
as(I205
I8
tp8169
(lp8170
S'205_8.png'
p8171
aVgo to the cell directly above the southernmost rock .
p8172
a(I7
I4
tp8173
a(I7
I4
tp8174
ag7
as(I23
I1
tp8175
(lp8176
S'23_1.png'
p8177
aVto block the rock
p8178
a(I6
I9
tp8179
a(I7
I3
tp8180
ag194
as(I35
I2
tp8181
(lp8182
S'35_2.png'
p8183
aVgo to the northmost tree
p8184
a(I2
I6
tp8185
a(I2
I6
tp8186
ag7
as(I146
I3
tp8187
(lp8188
S'146_3.png'
p8189
aVright of the western most tree
p8190
a(I3
I2
tp8191
a(I6
I8
tp8192
ag194
as(I245
I2
tp8193
(lp8194
S'245_2.png'
p8195
aVthe leftmost horse
p8196
a(I3
I0
tp8197
a(I3
I0
tp8198
ag7
as(I232
I9
tp8199
(lp8200
S'232_9.png'
p8201
aVreach the cell north of the northernmost rock .
p8202
a(I0
I1
tp8203
a(I0
I1
tp8204
ag7
as(I100
I0
tp8205
(lp8206
S'100_0.png'
p8207
aVreach the cell that contains the horse
p8208
a(I7
I4
tp8209
a(I7
I4
tp8210
ag7
as(I140
I1
tp8211
(lp8212
S'140_1.png'
p8213
aVgo to the topmost horse .
p8214
a(I5
I2
tp8215
a(I5
I2
tp8216
ag7
as(I125
I8
tp8217
(lp8218
S'125_8.png'
p8219
aVone square above the southernmost house
p8220
a(I5
I4
tp8221
a(I5
I4
tp8222
ag7
as(I112
I3
tp8223
(lp8224
S'112_3.png'
p8225
aVgo to the horse that is straight left from the rightmost horse
p8226
a(I1
I5
tp8227
a(I1
I5
tp8228
ag7
as(I239
I0
tp8229
(lp8230
S'239_0.png'
p8231
aVone to the right of the topmost tree
p8232
a(I0
I6
tp8233
a(I0
I6
tp8234
ag7
as(I152
I4
tp8235
(lp8236
S'152_4.png'
p8237
aVgo one box right of lowest tree .
p8238
a(I8
I5
tp8239
a(I8
I5
tp8240
ag7
as(I205
I1
tp8241
(lp8242
S'205_1.png'
p8243
aVgo to the cell directly above the easternmost rock .
p8244
a(I2
I8
tp8245
a(I2
I8
tp8246
ag7
as(I134
I7
tp8247
(lp8248
S'134_7.png'
p8249
aVreach cell to the left if the uppermost tree
p8250
a(I1
I2
tp8251
a(I1
I2
tp8252
ag7
as(I159
I5
tp8253
(lp8254
S'159_5.png'
p8255
aVmove to the square below the westernmost horse .
p8256
a(I9
I1
tp8257
a(I9
I1
tp8258
ag7
as(I217
I6
tp8259
(lp8260
S'217_6.png'
p8261
aVgo to the square to the right of the top-most rock
p8262
a(I3
I6
tp8263
a(I3
I6
tp8264
ag7
as(I257
I5
tp8265
(lp8266
S'257_5.png'
p8267
aVgo to western most tree .
p8268
a(I6
I0
tp8269
a(I6
I0
tp8270
ag7
as(I242
I6
tp8271
(lp8272
S'242_6.png'
p8273
aVleft of the farthest left house
p8274
a(I6
I0
tp8275
a(I6
I0
tp8276
ag7
as(I60
I1
tp8277
(lp8278
S'60_1.png'
p8279
aVone above the topmost horse
p8280
a(I0
I3
tp8281
a(I0
I3
tp8282
ag7
as(I85
I7
tp8283
(lp8284
S'85_7.png'
p8285
aVgo to the bottom tree
p8286
a(I7
I4
tp8287
a(I7
I4
tp8288
ag7
as(I72
I4
tp8289
(lp8290
S'72_4.png'
p8291
aVone below the bottom right tree
p8292
a(I8
I9
tp8293
a(I8
I9
tp8294
ag7
as(I208
I9
tp8295
(lp8296
S'208_9.png'
p8297
aVmove below the northern most house
p8298
a(I1
I7
tp8299
a(I1
I7
tp8300
ag7
as(I211
I4
tp8301
(lp8302
S'211_4.png'
p8303
aVmove to the cell with the leftmost true
p8304
a(I1
I6
tp8305
a(I1
I6
tp8306
ag7
as(I125
I1
tp8307
(lp8308
S'125_1.png'
p8309
aVmove one square left of the northernmost rock
p8310
a(I2
I5
tp8311
a(I2
I5
tp8312
ag7
as(I236
I4
tp8313
(lp8314
S'236_4.png'
p8315
aVgo to the cell right of the southernmost horse .
p8316
a(I9
I5
tp8317
a(I9
I5
tp8318
ag7
as(I54
I7
tp8319
(lp8320
S'54_7.png'
p8321
aVgo to the cell above the bottommost horse
p8322
a(I7
I9
tp8323
a(I7
I9
tp8324
ag7
as(I239
I9
tp8325
(lp8326
S'239_9.png'
p8327
aVbetween the westernmost house and the top rock in the column of two rocks
p8328
a(I6
I5
tp8329
a(I6
I5
tp8330
ag7
as(I17
I9
tp8331
(lp8332
S'17_9.png'
p8333
aV3 spaces below the top right most rock
p8334
a(I3
I6
tp8335
a(I3
I6
tp8336
ag7
as(I202
I7
tp8337
(lp8338
S'202_7.png'
p8339
aVgo to the left most house
p8340
a(I9
I0
tp8341
a(I9
I0
tp8342
ag7
as(I20
I2
tp8343
(lp8344
S'20_2.png'
p8345
aVreach the cell two cells south of the northern most tree .
p8346
a(I7
I7
tp8347
a(I7
I7
tp8348
ag7
as(I45
I6
tp8349
(lp8350
S'45_6.png'
p8351
aVselect the most southern house .
p8352
a(I9
I5
tp8353
a(I9
I5
tp8354
ag7
as(I119
I3
tp8355
(lp8356
S'119_3.png'
p8357
aVgo to the cell between the two topmost trees .
p8358
a(I3
I2
tp8359
a(I3
I2
tp8360
ag7
as(I230
I2
tp8361
(lp8362
S'230_2.png'
p8363
aVmove to the square above the southernmost house
p8364
a(I7
I1
tp8365
a(I8
I1
tp8366
ag194
as(I159
I2
tp8367
(lp8368
S'159_2.png'
p8369
aVmove to the square with the topmost tree .
p8370
a(I3
I0
tp8371
a(I3
I0
tp8372
ag7
as(I57
I3
tp8373
(lp8374
S'57_3.png'
p8375
aVgo to the cell above the furthest east house
p8376
a(I8
I9
tp8377
a(I7
I6
tp8378
ag194
as(I242
I1
tp8379
(lp8380
S'242_1.png'
p8381
aVone left of te middle rock
p8382
a(I2
I1
tp8383
a(I2
I1
tp8384
ag7
as(I85
I0
tp8385
(lp8386
S'85_0.png'
p8387
aVgo to the top most horse
p8388
a(I1
I9
tp8389
a(I1
I9
tp8390
ag7
as(I14
I4
tp8391
(lp8392
S'14_4.png'
p8393
aVgo to most left rock
p8394
a(I6
I3
tp8395
a(I6
I3
tp8396
ag7
as(I39
I4
tp8397
(lp8398
S'39_4.png'
p8399
aVmove one left of the topmost horse
p8400
a(I0
I1
tp8401
a(I0
I1
tp8402
ag7
as(I208
I0
tp8403
(lp8404
S'208_0.png'
p8405
aVmove to the square above the southern most rock
p8406
a(I3
I4
tp8407
a(I3
I4
tp8408
ag7
as(I122
I7
tp8409
(lp8410
S'122_7.png'
p8411
aVcell is one above left most tree
p8412
a(I4
I0
tp8413
a(I4
I0
tp8414
ag7
as(I51
I1
tp8415
(lp8416
S'51_1.png'
p8417
aVgo to one cell above the easternmost rock .
p8418
a(I0
I9
tp8419
a(I0
I9
tp8420
ag7
as(I236
I3
tp8421
(lp8422
S'236_3.png'
p8423
aVgo to the cell above the easternmost house .
p8424
a(I5
I8
tp8425
a(I5
I8
tp8426
ag7
as(I248
I6
tp8427
(lp8428
S'248_6.png'
p8429
aVgo one below the top-most tree .
p8430
a(I1
I2
tp8431
a(I2
I1
tp8432
ag194
as(I17
I2
tp8433
(lp8434
S'17_2.png'
p8435
aVthe cell below the bottom most rock
p8436
a(I5
I6
tp8437
a(I5
I6
tp8438
ag7
as(I20
I9
tp8439
(lp8440
S'20_9.png'
p8441
aVreach the cell one space to the left of the eastern most house .
p8442
a(I8
I6
tp8443
a(I8
I6
tp8444
ag7
as(I116
I5
tp8445
(lp8446
S'116_5.png'
p8447
aVthe images are not coiming in
p8448
as(I230
I5
tp8449
(lp8450
S'230_5.png'
p8451
aVmove to the square to the left of the tree
p8452
a(I4
I8
tp8453
a(I4
I8
tp8454
ag7
as(I57
I4
tp8455
(lp8456
S'57_4.png'
p8457
aVmove to the spot below the topmost house
p8458
a(I9
I6
tp8459
a(I9
I6
tp8460
ag7
as(I82
I4
tp8461
(lp8462
S'82_4.png'
p8463
aVmove to the westernmost tree .
p8464
a(I3
I4
tp8465
a(I3
I4
tp8466
ag7
as(I11
I0
tp8467
(lp8468
S'11_0.png'
p8469
aVmove to the northeasternmost horse .
p8470
a(I1
I7
tp8471
a(I1
I7
tp8472
ag7
as(I85
I9
tp8473
(lp8474
S'85_9.png'
p8475
aVpick the rock next to the bottom tree
p8476
a(I7
I5
tp8477
a(I7
I5
tp8478
ag7
as(I110
I3
tp8479
(lp8480
S'110_3.png'
p8481
aVreach cell to the right of left most horse
p8482
a(I8
I3
tp8483
a(I8
I3
tp8484
ag7
as(I221
I4
tp8485
(lp8486
S'221_4.png'
p8487
aVthe cell that is below the lowest rock
p8488
a(I4
I8
tp8489
a(I4
I8
tp8490
ag7
as(I208
I7
tp8491
(lp8492
S'208_7.png'
p8493
aVmove one square down and one square to the left of the horse
p8494
a(I3
I2
tp8495
a(I3
I2
tp8496
ag7
as(I233
I1
tp8497
(lp8498
S'233_1.png'
p8499
aVthe topmost house
p8500
a(I1
I8
tp8501
a(I1
I8
tp8502
ag7
as(I51
I6
tp8503
(lp8504
S'51_6.png'
p8505
aVgo to the cell below the uppermost horse .
p8506
a(I3
I2
tp8507
a(I3
I2
tp8508
ag7
as(I76
I6
tp8509
(lp8510
S'76_6.png'
p8511
aVgo to the cell containing the topmost tree .
p8512
a(I2
I0
tp8513
a(I2
I0
tp8514
ag7
as(I88
I1
tp8515
(lp8516
S'88_1.png'
p8517
aVmove five to the left of the topmost tree .
p8518
a(I0
I1
tp8519
a(I0
I1
tp8520
ag7
as(I141
I9
tp8521
(lp8522
S'141_9.png'
p8523
aVmove one square above the topmost rock
p8524
a(I2
I6
tp8525
a(I2
I6
tp8526
ag7
as(I128
I2
tp8527
(lp8528
S'128_2.png'
p8529
aVmove to the cell of the furthest western tree
p8530
a(I9
I0
tp8531
a(I9
I0
tp8532
ag7
as(I202
I9
tp8533
(lp8534
S'202_9.png'
p8535
aVgo to the left most rock
p8536
a(I8
I0
tp8537
a(I8
I0
tp8538
ag7
as(I227
I3
tp8539
(lp8540
S'227_3.png'
p8541
aVgo to the top most rock
p8542
a(I0
I2
tp8543
a(I0
I2
tp8544
ag7
as(I36
I7
tp8545
(lp8546
S'36_7.png'
p8547
aVgo one to the left of the westernmost tree
p8548
a(I1
I4
tp8549
a(I1
I4
tp8550
ag7
as(I258
I9
tp8551
(lp8552
S'258_9.png'
p8553
aVthe box below the top house
p8554
a(I6
I3
tp8555
a(I6
I3
tp8556
ag7
as(I48
I2
tp8557
(lp8558
S'48_2.png'
p8559
aVgo one cell to the left of the topmost rock .
p8560
a(I4
I7
tp8561
a(I7
I4
tp8562
ag194
as(I122
I9
tp8563
(lp8564
S'122_9.png'
p8565
aVcell is rightmost tree
p8566
a(I4
I7
tp8567
a(I4
I7
tp8568
ag7
as(I30
I1
tp8569
(lp8570
S'30_1.png'
p8571
aVmove three cells north from the westernmost house .
p8572
a(I6
I1
tp8573
a(I6
I1
tp8574
ag7
as(I88
I8
tp8575
(lp8576
S'88_8.png'
p8577
aVselect the rock below the westernmost topmost rock
p8578
a(I1
I2
tp8579
a(I1
I2
tp8580
ag7
as(I141
I2
tp8581
(lp8582
S'141_2.png'
p8583
aVreach square one to the left of the topmost rock
p8584
a(I3
I5
tp8585
a(I3
I5
tp8586
ag7
as(I113
I0
tp8587
(lp8588
S'113_0.png'
p8589
aVmove to one cell above the topmost rock
p8590
a(I2
I7
tp8591
a(I2
I7
tp8592
ag7
as(I153
I7
tp8593
(lp8594
S'153_7.png'
p8595
aVreach the eastmost tree
p8596
a(I5
I9
tp8597
a(I5
I9
tp8598
ag7
as(I227
I8
tp8599
(lp8600
S'227_8.png'
p8601
aVgo to the space to the left of the top most tree
p8602
a(I1
I1
tp8603
a(I1
I1
tp8604
ag7
as(I135
I0
tp8605
(lp8606
S'135_0.png'
p8607
aVgo to the uppermost house .
p8608
a(I0
I2
tp8609
a(I0
I2
tp8610
ag7
as(I107
I2
tp8611
(lp8612
S'107_2.png'
p8613
aVgo to the cell of the western most tree
p8614
a(I8
I3
tp8615
a(I8
I3
tp8616
ag7
as(I144
I8
tp8617
(lp8618
S'144_8.png'
p8619
aVone below the house
p8620
a(I3
I1
tp8621
a(I3
I1
tp8622
ag7
as(I218
I3
tp8623
(lp8624
S'218_3.png'
p8625
aVreach cell to the right of westernmost horse
p8626
a(I4
I2
tp8627
a(I4
I2
tp8628
ag7
as(I147
I5
tp8629
(lp8630
S'147_5.png'
p8631
aVgo to most northern house .
p8632
a(I0
I2
tp8633
a(I0
I2
tp8634
ag7
as(I258
I0
tp8635
(lp8636
S'258_0.png'
p8637
aVthe cell to the right of the upper tree
p8638
a(I0
I2
tp8639
a(I0
I2
tp8640
ag7
as(I246
I6
tp8641
(lp8642
S'246_6.png'
p8643
aVreach cell one below top most house .
p8644
a(I1
I3
tp8645
a(I1
I3
tp8646
ag7
as(I73
I7
tp8647
(lp8648
S'73_7.png'
p8649
aVbox one left of the westernmost tree
p8650
a(I8
I0
tp8651
a(I8
I0
tp8652
ag7
as(I138
I6
tp8653
(lp8654
S'138_6.png'
p8655
aVthe cell above the bottom rock
p8656
a(I7
I3
tp8657
a(I7
I3
tp8658
ag7
as(I30
I8
tp8659
(lp8660
S'30_8.png'
p8661
aVthe southernmost tree
p8662
a(I8
I0
tp8663
a(I8
I0
tp8664
ag7
as(I237
I7
tp8665
(lp8666
S'237_7.png'
p8667
aVgo one left of the rightmost house .
p8668
a(I4
I6
tp8669
a(I4
I6
tp8670
ag7
as(I55
I0
tp8671
(lp8672
S'55_0.png'
p8673
aVreach the square above the topmost tree
p8674
a(I0
I6
tp8675
a(I0
I6
tp8676
ag7
as(I153
I8
tp8677
(lp8678
S'153_8.png'
p8679
aVreach the cell to the left of the farthest northwest tree .
p8680
a(I5
I2
tp8681
a(I5
I2
tp8682
ag7
as(I64
I8
tp8683
(lp8684
S'64_8.png'
p8685
aVhighlight the east most tree
p8686
a(I4
I6
tp8687
a(I4
I6
tp8688
ag7
as(I67
I5
tp8689
(lp8690
S'67_5.png'
p8691
aVmove to the house closest to the bottom left corner .
p8692
a(I7
I2
tp8693
a(I7
I2
tp8694
ag7
as(I203
I8
tp8695
(lp8696
S'203_8.png'
p8697
aVchoose the horse three to the left of the top most rock
p8698
a(I3
I3
tp8699
a(I3
I2
tp8700
ag194
as(I21
I1
tp8701
(lp8702
S'21_1.png'
p8703
aVreach cell one below southern most house
p8704
a(I6
I6
tp8705
a(I6
I6
tp8706
ag7
as(I132
I4
tp8707
(lp8708
S'132_4.png'
p8709
aVgo left of the leftmost house
p8710
a(I8
I2
tp8711
a(I8
I2
tp8712
ag7
as(I206
I7
tp8713
(lp8714
S'206_7.png'
p8715
aVone cell left of the bottom most rock
p8716
a(I7
I6
tp8717
a(I7
I6
tp8718
ag7
as(I231
I5
tp8719
(lp8720
S'231_5.png'
p8721
aVclick the westernmost house
p8722
a(I7
I2
tp8723
a(I7
I2
tp8724
ag7
as(I33
I6
tp8725
(lp8726
S'33_6.png'
p8727
aVone below the right top house
p8728
a(I1
I9
tp8729
a(I1
I9
tp8730
ag7
as(I15
I3
tp8731
(lp8732
S'15_3.png'
p8733
aVmove cell to the westernmost tree
p8734
a(I6
I1
tp8735
a(I6
I1
tp8736
ag7
as(I73
I8
tp8737
(lp8738
S'73_8.png'
p8739
aVbox around rock one below the northernmost rock
p8740
a(I6
I5
tp8741
a(I5
I6
tp8742
ag194
as(I209
I3
tp8743
(lp8744
S'209_3.png'
p8745
aVmove to the square directly right of the most western horse
p8746
a(I1
I1
tp8747
a(I1
I1
tp8748
ag7
as(I27
I4
tp8749
(lp8750
S'27_4.png'
p8751
aVthe easternmost rock
p8752
a(I3
I9
tp8753
a(I3
I9
tp8754
ag7
as(I138
I1
tp8755
(lp8756
S'138_1.png'
p8757
aVthe cell to the left of the top rock
p8758
a(I0
I6
tp8759
a(I0
I6
tp8760
ag7
as(I123
I8
tp8761
(lp8762
S'123_8.png'
p8763
aVmove to the only tree .
p8764
a(I4
I6
tp8765
a(I4
I6
tp8766
ag7
as(I52
I4
tp8767
(lp8768
S'52_4.png'
p8769
aVsquare to the right of the westernmost tree
p8770
a(I4
I3
tp8771
a(I4
I3
tp8772
ag7
as(I126
I7
tp8773
(lp8774
S'126_7.png'
p8775
aVgo to the bottom house on the left
p8776
a(I4
I3
tp8777
a(I4
I5
tp8778
ag194
as(I237
I0
tp8779
(lp8780
S'237_0.png'
p8781
aVreach the upmost horse .
p8782
a(I1
I8
tp8783
a(I1
I8
tp8784
ag7
as(I249
I5
tp8785
(lp8786
S'249_5.png'
p8787
aVgo to the right most rock
p8788
a(I5
I6
tp8789
a(I5
I6
tp8790
ag7
as(I18
I7
tp8791
(lp8792
S'18_7.png'
p8793
aVmove to the cell to the left of the bottom tree .
p8794
a(I9
I0
tp8795
a(I9
I0
tp8796
ag7
as(I129
I8
tp8797
(lp8798
S'129_8.png'
p8799
aVreach one square below the top-most tree .
p8800
a(I4
I3
tp8801
a(I4
I3
tp8802
ag7
as(I203
I1
tp8803
(lp8804
S'203_1.png'
p8805
aVgo to the cell above the bottom house
p8806
a(I8
I7
tp8807
a(I7
I8
tp8808
ag194
as(I132
I3
tp8809
(lp8810
S'132_3.png'
p8811
aVgo to the second lowest tree
p8812
a(I6
I0
tp8813
a(I6
I0
tp8814
ag7
as(I117
I6
tp8815
(lp8816
S'117_6.png'
p8817
aVgo one cell down from the topmost house
p8818
a(I3
I9
tp8819
a(I3
I9
tp8820
ag7
as(I46
I2
tp8821
(lp8822
S'46_2.png'
p8823
aVgo to westernmost tree .
p8824
a(I1
I0
tp8825
a(I1
I0
tp8826
ag7
as(I157
I5
tp8827
(lp8828
S'157_5.png'
p8829
aVgo to the square directly to the left of the bottommost horse .
p8830
a(I6
I3
tp8831
a(I6
I3
tp8832
ag7
as(I231
I2
tp8833
(lp8834
S'231_2.png'
p8835
aVclick one square left of the westernmost house
p8836
a(I7
I1
tp8837
a(I7
I1
tp8838
ag7
as(I144
I6
tp8839
(lp8840
S'144_6.png'
p8841
aVthe square between the leftmost horses
p8842
a(I3
I0
tp8843
a(I3
I0
tp8844
ag7
as(I243
I7
tp8845
(lp8846
S'243_7.png'
p8847
aVchoose the cell with the house farthest to the left .
p8848
a(I8
I2
tp8849
a(I8
I2
tp8850
ag7
as(I12
I5
tp8851
(lp8852
S'12_5.png'
p8853
aVmove 1 cell left of the leftmost house .
p8854
a(I2
I0
tp8855
a(I2
I0
tp8856
ag7
as(I86
I4
tp8857
(lp8858
S'86_4.png'
p8859
aVgo two cells to the right of the westernmost tree
p8860
a(I4
I2
tp8861
a(I4
I2
tp8862
ag7
as(I15
I8
tp8863
(lp8864
S'15_8.png'
p8865
aVmove cell one square left of the westernmost tree
p8866
a(I6
I0
tp8867
a(I6
I0
tp8868
ag7
as(I24
I0
tp8869
(lp8870
S'24_0.png'
p8871
aVmove to the cell of the rightmost horse .
p8872
a(I0
I7
tp8873
a(I0
I7
tp8874
ag7
as(I151
I7
tp8875
(lp8876
S'151_7.png'
p8877
aVthe bottom most house
p8878
a(I8
I3
tp8879
a(I8
I3
tp8880
ag7
as(I209
I4
tp8881
(lp8882
S'209_4.png'
p8883
aVmove to the square directly under the top most horse
p8884
a(I1
I7
tp8885
a(I1
I7
tp8886
ag7
as(I138
I8
tp8887
(lp8888
S'138_8.png'
p8889
aVthe cell above the bottom right horse
p8890
a(I8
I6
tp8891
a(I8
I6
tp8892
ag7
as(I49
I8
tp8893
(lp8894
S'49_8.png'
p8895
aVreach the cell with the westernmost house .
p8896
a(I8
I1
tp8897
a(I8
I1
tp8898
ag7
as(I123
I1
tp8899
(lp8900
S'123_1.png'
p8901
aVmove to the northwest most horse .
p8902
a(I5
I0
tp8903
a(I5
I0
tp8904
ag7
as(I52
I3
tp8905
(lp8906
S'52_3.png'
p8907
aVsquare to the right of the topmost horse
p8908
a(I0
I1
tp8909
a(I0
I1
tp8910
ag7
as(I77
I5
tp8911
(lp8912
S'77_5.png'
p8913
aVmove cell to the left of the westernmost house
p8914
a(I4
I0
tp8915
a(I4
I0
tp8916
ag7
as(I64
I6
tp8917
(lp8918
S'64_6.png'
p8919
aVhighlight the east most tree
p8920
a(I4
I6
tp8921
a(I4
I6
tp8922
ag7
as(I89
I2
tp8923
(lp8924
S'89_2.png'
p8925
aVthe top rock .
p8926
a(I7
I2
tp8927
a(I7
I2
tp8928
ag7
as(I129
I1
tp8929
(lp8930
S'129_1.png'
p8931
aVreach one square above the bottom-most rock .
p8932
a(I6
I9
tp8933
a(I6
I9
tp8934
ag7
as(I203
I6
tp8935
(lp8936
S'203_6.png'
p8937
aVgo to the horse that has no other items in the column
p8938
a(I3
I3
tp8939
a(I3
I3
tp8940
ag7
as(I46
I5
tp8941
(lp8942
S'46_5.png'
p8943
aVgo to the cell above the eastern most horse .
p8944
a(I8
I9
tp8945
a(I8
I9
tp8946
ag7
as(I240
I1
tp8947
(lp8948
S'240_1.png'
p8949
aVgo to the horse above the right most rock
p8950
a(I2
I7
tp8951
a(I2
I7
tp8952
ag7
as(I83
I0
tp8953
(lp8954
S'83_0.png'
p8955
aVgo to the rightmost horse .
p8956
a(I4
I5
tp8957
a(I4
I5
tp8958
ag7
as(I24
I7
tp8959
(lp8960
S'24_7.png'
p8961
aVmove one cell right of the leftmost horse .
p8962
a(I1
I2
tp8963
a(I1
I2
tp8964
ag7
as(I247
I8
tp8965
(lp8966
S'247_8.png'
p8967
aVreach cell to the lowest tree
p8968
a(I5
I9
tp8969
a(I5
I9
tp8970
ag7
as(I49
I1
tp8971
(lp8972
S'49_1.png'
p8973
aVreach the cell with the westernmost horse .
p8974
a(I6
I4
tp8975
a(I7
I6
tp8976
ag194
as(I123
I6
tp8977
(lp8978
S'123_6.png'
p8979
aVmove one to the left of the topmost house .
p8980
a(I2
I4
tp8981
a(I2
I4
tp8982
ag7
as.